(lp0
(dp1
S'question'
p2
S'when did My Chemical Romance start to perform?'
p3
sS'target'
p4
S'bandfoundation'
p5
sS'recognized'
p6
S'n'
p7
sa(dp8
g2
S'what movies there are?'
p9
sg4
S'listmovies'
p10
sg6
g7
sa(dp11
g2
S'steven spielberg was the director of what movies?'
p12
sg4
S'moviesbydirector'
p13
sg6
g7
sa(dp14
g2
S'who are the past liders of Brazil?'
p15
sg4
S'presidentsof'
p16
sg6
g7
sa(dp17
g2
S"when is Angelina Jolie's birthday?"
p18
sg4
S'howoldis'
p19
sg6
g7
sa(dp20
g2
S'What is the main spoken language in Poland?'
p21
sg4
S'spokenlanguageof'
p22
sg6
g7
sa(dp23
g2
S'list of books created by Agatha Christie'
p24
sg4
S'booksbyauthor'
p25
sg6
g7
sa(dp26
g2
S"what is the hitchhiker's guide to the galaxy about?"
p27
sg4
S'plotof'
p28
sg6
g7
sa(dp29
g2
S'which works did Linkin Park make?'
p30
sg4
S'albumsofband'
p31
sg6
g7
sa(dp32
g2
S'where is the Statue of Liberty'
p33
sg4
S'whereis'
p34
sg6
g7
sa(dp35
g2
S'who create Stargate Atlantis?'
p36
sg4
S'creatorof'
p37
sg6
g7
sa(dp38
g2
S'which were the actors of the TV show Uggly Betty'
p39
sg4
S'castof'
p40
sg6
g7
sa(dp41
g2
S'who are the presidents of Bolivia?'
p42
sg4
S'presidentsof'
p43
sg6
g7
sa(dp44
g2
S'definition of computer'
p45
sg4
S'whatis'
p46
sg6
g7
sa(dp47
g2
S'what type of songs does the Rolling Stones?'
p48
sg4
S'musicgenre'
p49
sg6
g7
sa(dp50
g2
S'what works did the Beatles do?'
p51
sg4
S'albumsofband'
p52
sg6
g7
sa(dp53
g2
S'What movies did James Dean appear in?'
p54
sg4
S'actedon'
p55
sg6
g7
sa(dp56
g2
S'who have been presidents of the Arab Republic of Egypt?'
p57
sg4
S'presidentsof'
p58
sg6
g7
sa(dp59
g2
S'plot of Frozen?'
p60
sg4
S'plotof'
p61
sg6
g7
sa(dp62
g2
S"how many people there is in the People's Republic of China?"
p63
sg4
S'populationof'
p64
sg6
g7
sa(dp65
g2
S'list books written by J. K. Rowling'
p66
sg4
S'booksbyauthor'
p67
sg6
g7
sa(dp68
g2
S'when was George Clooney born?'
p69
sg4
S'howoldis'
p70
sg6
g7
sa(dp71
g2
S'What are titles of albums featuring The Black Eyed Peas?'
p72
sg4
S'albumsofband'
p73
sg6
g7
sa(dp74
g2
S'list of works written by George R.R. Martin'
p75
sg4
S'booksbyauthor'
p76
sg6
g7
sa(dp77
g2
S'list the actors that worked in Alice in Wonderland'
p78
sg4
S'actedon'
p79
sg6
g7
sa(dp80
g2
S'how many minutes long is the lord of the rings?'
p81
sg4
S'movieduration'
p82
sg6
g7
sa(dp83
g2
S'who is the writer of The Lord of the Rings?'
p84
sg4
S'creatorof'
p85
sg6
g7
sa(dp86
g2
S'what is the main language in th republic of Argentina?'
p87
sg4
S'spokenlanguageof'
p88
sg6
g7
sa(dp89
g2
S"albums recorded by the Guns n' Roses"
p90
sg4
S'albumsofband'
p91
sg6
g7
sa(dp92
g2
S'where was Matt Damon born?'
p93
sg4
S'whereisfrom'
p94
sg6
g7
sa(dp95
g2
S'what is the capital city of the United Kingdom?'
p96
sg4
S'capitalcityof'
p97
sg6
g7
sa(dp98
g2
S'what is the age of Katy Perry?'
p99
sg4
S'howoldis'
p100
sg6
g7
sa(dp101
g2
S'When was the Red Hot Chili Peppers founded?'
p102
sg4
S'bandfoundation'
p103
sg6
g7
sa(dp104
g2
S'in what date did Bryan Cranston born?'
p105
sg4
S'howoldis'
p106
sg6
g7
sa(dp107
g2
S'how many people is in Paraguay?'
p108
sg4
S'populationof'
p109
sg6
g7
sa(dp110
g2
S'actors that worked in the movie Matrix?'
p111
sg4
S'actedon'
p112
sg6
g7
sa(dp113
g2
S'what type of music does AC DC?'
p114
sg4
S'musicgenre'
p115
sg6
g7
sa(dp116
g2
S'what TV shows are?'
p117
sg4
S'listtvshows'
p118
sg6
g7
sa(dp119
g2
S'when was the Rolling Stones born?'
p120
sg4
S'bandfoundation'
p121
sg6
g7
sa(dp122
g2
S'what actors worked on the matrix?'
p123
sg4
S'actedon'
p124
sg6
g7
sa(dp125
g2
S'On what TV show does Hammond regularly appear?'
p126
sg4
S'showswith'
p127
sg6
g7
sa(dp128
g2
S'list actors starring in the movie The Nightmare Before Christmas'
p129
sg4
S'actedon'
p130
sg6
g7
sa(dp131
g2
S"which are the actors of Grey's Anatomy"
p132
sg4
S'castof'
p133
sg6
g7
sa(dp134
g2
S'where did J. R. R. Tolkien born?'
p135
sg4
S'whereisfrom'
p136
sg6
g7
sa(dp137
g2
S'What is a car'
p138
sg4
S'whatis'
p139
sg6
S's'
p140
sa(dp141
g2
S'What is Seinfield?'
p142
sg4
S'whatis'
p143
sg6
g140
sa(dp144
g2
S'where in the world is the Eiffel Tower'
p145
sg4
S'whereis'
p146
sg6
g140
sa(dp147
g2
S'list presidents of Argentina?'
p148
sg4
S'presidentsof'
p149
sg6
g140
sa(dp150
g2
S'What is the capital of Bolivia?'
p151
sg4
S'capitalcityof'
p152
sg6
g140
sa(dp153
g2
S'What is the language of Liberia?'
p154
sg4
S'spokenlanguageof'
p155
sg6
g140
sa(dp156
g2
S'What is the spoken language in Russia?'
p157
sg4
S'spokenlanguageof'
p158
sg6
g140
sa(dp159
g2
S'What is the population of China?'
p160
sg4
S'populationof'
p161
sg6
g140
sa(dp162
g2
S'how many people live in Australia?'
p163
sg4
S'populationof'
p164
sg6
g140
sa(dp165
g2
S'List movies'
p166
sg4
S'listmovies'
p167
sg6
g140
sa(dp168
g2
S'List movies directed by Quentin Tarantino.'
p169
sg4
S'moviesbydirector'
p170
sg6
g140
sa(dp171
g2
S'movies directed by Martin Scorsese'
p172
sg4
S'moviesbydirector'
p173
sg6
g140
sa(dp174
g2
S'which movies did Mel Gibson directed'
p175
sg4
S'moviesbydirector'
p176
sg6
g140
sa(dp177
g2
S'How long is Pulp Fiction'
p178
sg4
S'movieduration'
p179
sg6
g140
sa(dp180
g2
S'What is the duration of The Thin Red Line?'
p181
sg4
S'movieduration'
p182
sg6
g140
sa(dp183
g2
S'List movies with Hugh Laurie'
p184
sg4
S'actedon'
p185
sg6
g140
sa(dp186
g2
S'Movies with Matt LeBlanc'
p187
sg4
S'actedon'
p188
sg6
g140
sa(dp189
g2
S'In what movies did Jennifer Aniston appear?'
p190
sg4
S'actedon'
p191
sg6
g140
sa(dp192
g2
S'Which movies did Mel Gibson starred?'
p193
sg4
S'actedon'
p194
sg6
g140
sa(dp195
g2
S'Movies starring Winona Ryder'
p196
sg4
S'actedon'
p197
sg6
g140
sa(dp198
g2
S'when was gravity released?'
p199
sg4
S'moviereleasedate'
p200
sg6
g140
sa(dp201
g2
S'release date of the hobbit?'
p202
sg4
S'moviereleasedate'
p203
sg6
g140
sa(dp204
g2
S'Who is the director of Big Fish?'
p205
sg4
S'directorof'
p206
sg6
g140
sa(dp207
g2
S'who directed Pocahontas?'
p208
sg4
S'directorof'
p209
sg6
g140
sa(dp210
g2
S'who are the actors of Titanic?'
p211
sg4
S'actorsof'
p212
sg6
g140
sa(dp213
g2
S'who acted in Alien?'
p214
sg4
S'actorsof'
p215
sg6
g140
sa(dp216
g2
S'who starred in Depredator?'
p217
sg4
S'actorsof'
p218
sg6
g140
sa(dp219
g2
S'Actors of Fight Club'
p220
sg4
S'actorsof'
p221
sg6
g140
sa(dp222
g2
S'what is the plot of Titanic'
p223
sg4
S'plotof'
p224
sg6
g140
sa(dp225
g2
S'what was Sherk about?'
p226
sg4
S'plotof'
p227
sg6
g140
sa(dp228
g2
S'Radiohead members'
p229
sg4
S'bandmembers'
p230
sg6
g140
sa(dp231
g2
S'What are the members of Metallica?'
p232
sg4
S'bandmembers'
p233
sg6
g140
sa(dp234
g2
S'who were the members of pink floyd?'
p235
sg4
S'bandmembers'
p236
sg6
g140
sa(dp237
g2
S'When was Korn formed?'
p238
sg4
S'bandfoundation'
p239
sg6
g140
sa(dp240
g2
S'What is the music genre of Gorillaz?'
p241
sg4
S'musicgenre'
p242
sg6
g140
sa(dp243
g2
S'Music genre of Radiohead'
p244
sg4
S'musicgenre'
p245
sg6
g140
sa(dp246
g2
S'List albums of Pink Floyd'
p247
sg4
S'albumsofband'
p248
sg6
g140
sa(dp249
g2
S'What albums did Pearl Jam record?'
p250
sg4
S'albumsofband'
p251
sg6
g140
sa(dp252
g2
S'Albums by Metallica'
p253
sg4
S'albumsofband'
p254
sg6
g140
sa(dp255
g2
S'what albums did The Beatles make?'
p256
sg4
S'albumsofband'
p257
sg6
g140
sa(dp258
g2
S'Who is Tom Cruise?'
p259
sg4
S'whois'
p260
sg6
g140
sa(dp261
g2
S'How old is Bob Dylan'
p262
sg4
S'howoldis'
p263
sg6
g140
sa(dp264
g2
S'Where is Bill Gates from?'
p265
sg4
S'whereisfrom'
p266
sg6
g140
sa(dp267
g2
S'What is the cast of Friends?'
p268
sg4
S'castof'
p269
sg6
g140
sa(dp270
g2
S'Who works in Breaking Bad?'
p271
sg4
S'castof'
p272
sg6
g140
sa(dp273
g2
S'List actors of Seinfeld'
p274
sg4
S'castof'
p275
sg6
g140
sa(dp276
g2
S'List TV shows'
p277
sg4
S'listtvshows'
p278
sg6
g140
sa(dp279
g2
S'How many episodes does Seinfeld have?'
p280
sg4
S'episodecount'
p281
sg6
g140
sa(dp282
g2
S'Number of episodes of Seinfeld'
p283
sg4
S'episodecount'
p284
sg6
g140
sa(dp285
g2
S'List shows with Hugh Laurie'
p286
sg4
S'showswith'
p287
sg6
g140
sa(dp288
g2
S'In what shows does Jennifer Aniston appears?'
p289
sg4
S'showswith'
p290
sg6
g140
sa(dp291
g2
S'Shows with Matt LeBlanc'
p292
sg4
S'showswith'
p293
sg6
g140
sa(dp294
g2
S'Who is the creator of Breaking Bad?'
p295
sg4
S'creatorof'
p296
sg6
g140
sa(dp297
g2
S'Who are the creators of Friends?'
p298
sg4
S'creatorof'
p299
sg6
g140
sa(dp300
g2
S'who wrote The Little Prince?'
p301
sg4
S'whowrote'
p302
sg6
g140
sa(dp303
g2
S'who is the author of A Game Of Thrones?'
p304
sg4
S'whowrote'
p305
sg6
g140
sa(dp306
g2
S'list books by George Orwell'
p307
sg4
S'booksbyauthor'
p308
sg6
g140
sa(dp309
g2
S'which books did Suzanne Collins wrote?'
p310
sg4
S'booksbyauthor'
p311
sg6
g140
sa.