(lp0
(dp1
S'question'
p2
(lp3
ccopy_reg
_reconstructor
p4
(cquepy.tagger
Word
p5
c__builtin__
object
p6
Ntp7
Rp8
(dp9
S'lemma'
p10
Vwhat
p11
sS'token'
p12
VWhat
p13
sS'pos'
p14
VWP
p15
sS'prob'
p16
Nsbag4
(g5
g6
Ntp17
Rp18
(dp19
g10
Vbe
p20
sg12
Vis
p21
sg14
VVBZ
p22
sg16
Nsbag4
(g5
g6
Ntp23
Rp24
(dp25
g10
Va
p26
sg12
g26
sg14
VDT
p27
sg16
Nsbag4
(g5
g6
Ntp28
Rp29
(dp30
g10
Vcar
p31
sg12
g31
sg14
VNN
p32
sg16
NsbasS'target'
p33
S'whatis'
p34
sS'recognized'
p35
S's'
p36
sa(dp37
g2
(lp38
g4
(g5
g6
Ntp39
Rp40
(dp41
g10
Vwhat
p42
sg12
VWhat
p43
sg14
VWP
p44
sg16
Nsbag4
(g5
g6
Ntp45
Rp46
(dp47
g10
Vbe
p48
sg12
Vis
p49
sg14
VVBZ
p50
sg16
Nsbag4
(g5
g6
Ntp51
Rp52
(dp53
g10
Vseinfield
p54
sg12
VSeinfield
p55
sg14
VNNP
p56
sg16
Nsbag4
(g5
g6
Ntp57
Rp58
(dp59
g10
V?
p60
sg12
g60
sg14
V.
p61
sg16
Nsbasg33
S'whatis'
p62
sg35
g36
sa(dp63
g2
(lp64
g4
(g5
g6
Ntp65
Rp66
(dp67
g10
Vwhere
p68
sg12
g68
sg14
VWRB
p69
sg16
Nsbag4
(g5
g6
Ntp70
Rp71
(dp72
g10
Vin
p73
sg12
g73
sg14
VIN
p74
sg16
Nsbag4
(g5
g6
Ntp75
Rp76
(dp77
g10
Vthe
p78
sg12
g78
sg14
VDT
p79
sg16
Nsbag4
(g5
g6
Ntp80
Rp81
(dp82
g10
Vworld
p83
sg12
g83
sg14
VNN
p84
sg16
Nsbag4
(g5
g6
Ntp85
Rp86
(dp87
g10
Vbe
p88
sg12
Vis
p89
sg14
VVBZ
p90
sg16
Nsbag4
(g5
g6
Ntp91
Rp92
(dp93
g10
Vthe
p94
sg12
g94
sg14
VDT
p95
sg16
Nsbag4
(g5
g6
Ntp96
Rp97
(dp98
g10
Veiffel
p99
sg12
VEiffel
p100
sg14
VNNP
p101
sg16
Nsbag4
(g5
g6
Ntp102
Rp103
(dp104
g10
Vtower
p105
sg12
VTower
p106
sg14
VNNP
p107
sg16
Nsbasg33
S'whereis'
p108
sg35
g36
sa(dp109
g2
(lp110
g4
(g5
g6
Ntp111
Rp112
(dp113
g10
Vlist
p114
sg12
g114
sg14
VNN
p115
sg16
Nsbag4
(g5
g6
Ntp116
Rp117
(dp118
g10
Vpresident
p119
sg12
Vpresidents
p120
sg14
VNNS
p121
sg16
Nsbag4
(g5
g6
Ntp122
Rp123
(dp124
g10
Vof
p125
sg12
g125
sg14
VIN
p126
sg16
Nsbag4
(g5
g6
Ntp127
Rp128
(dp129
g10
Vargentina
p130
sg12
VArgentina
p131
sg14
VNNP
p132
sg16
Nsbag4
(g5
g6
Ntp133
Rp134
(dp135
g10
g60
sg12
g60
sg14
g61
sg16
Nsbasg33
S'presidentsof'
p136
sg35
g36
sa(dp137
g2
(lp138
g4
(g5
g6
Ntp139
Rp140
(dp141
g10
Vwhat
p142
sg12
VWhat
p143
sg14
VWP
p144
sg16
Nsbag4
(g5
g6
Ntp145
Rp146
(dp147
g10
Vbe
p148
sg12
Vis
p149
sg14
VVBZ
p150
sg16
Nsbag4
(g5
g6
Ntp151
Rp152
(dp153
g10
Vthe
p154
sg12
g154
sg14
VDT
p155
sg16
Nsbag4
(g5
g6
Ntp156
Rp157
(dp158
g10
Vcapital
p159
sg12
g159
sg14
VNN
p160
sg16
Nsbag4
(g5
g6
Ntp161
Rp162
(dp163
g10
Vof
p164
sg12
g164
sg14
VIN
p165
sg16
Nsbag4
(g5
g6
Ntp166
Rp167
(dp168
g10
Vbolivia
p169
sg12
VBolivia
p170
sg14
VNNP
p171
sg16
Nsbag4
(g5
g6
Ntp172
Rp173
(dp174
g10
g60
sg12
g60
sg14
g61
sg16
Nsbasg33
S'capitalcityof'
p175
sg35
g36
sa(dp176
g2
(lp177
g4
(g5
g6
Ntp178
Rp179
(dp180
g10
Vwhat
p181
sg12
VWhat
p182
sg14
VWP
p183
sg16
Nsbag4
(g5
g6
Ntp184
Rp185
(dp186
g10
Vbe
p187
sg12
Vis
p188
sg14
VVBZ
p189
sg16
Nsbag4
(g5
g6
Ntp190
Rp191
(dp192
g10
Vthe
p193
sg12
g193
sg14
VDT
p194
sg16
Nsbag4
(g5
g6
Ntp195
Rp196
(dp197
g10
Vlanguage
p198
sg12
g198
sg14
VNN
p199
sg16
Nsbag4
(g5
g6
Ntp200
Rp201
(dp202
g10
Vof
p203
sg12
g203
sg14
VIN
p204
sg16
Nsbag4
(g5
g6
Ntp205
Rp206
(dp207
g10
Vliberia
p208
sg12
VLiberia
p209
sg14
VNNP
p210
sg16
Nsbag4
(g5
g6
Ntp211
Rp212
(dp213
g10
g60
sg12
g60
sg14
g61
sg16
Nsbasg33
S'spokenlanguageof'
p214
sg35
g36
sa(dp215
g2
(lp216
g4
(g5
g6
Ntp217
Rp218
(dp219
g10
Vwhat
p220
sg12
VWhat
p221
sg14
VWP
p222
sg16
Nsbag4
(g5
g6
Ntp223
Rp224
(dp225
g10
Vbe
p226
sg12
Vis
p227
sg14
VVBZ
p228
sg16
Nsbag4
(g5
g6
Ntp229
Rp230
(dp231
g10
Vthe
p232
sg12
g232
sg14
VDT
p233
sg16
Nsbag4
(g5
g6
Ntp234
Rp235
(dp236
g10
Vspeak
p237
sg12
Vspoken
p238
sg14
VVBN
p239
sg16
Nsbag4
(g5
g6
Ntp240
Rp241
(dp242
g10
Vlanguage
p243
sg12
g243
sg14
VNN
p244
sg16
Nsbag4
(g5
g6
Ntp245
Rp246
(dp247
g10
Vin
p248
sg12
g248
sg14
VIN
p249
sg16
Nsbag4
(g5
g6
Ntp250
Rp251
(dp252
g10
Vrussia
p253
sg12
VRussia
p254
sg14
VNNP
p255
sg16
Nsbag4
(g5
g6
Ntp256
Rp257
(dp258
g10
g60
sg12
g60
sg14
g61
sg16
Nsbasg33
S'spokenlanguageof'
p259
sg35
g36
sa(dp260
g2
(lp261
g4
(g5
g6
Ntp262
Rp263
(dp264
g10
Vwhat
p265
sg12
VWhat
p266
sg14
VWP
p267
sg16
Nsbag4
(g5
g6
Ntp268
Rp269
(dp270
g10
Vbe
p271
sg12
Vis
p272
sg14
VVBZ
p273
sg16
Nsbag4
(g5
g6
Ntp274
Rp275
(dp276
g10
Vthe
p277
sg12
g277
sg14
VDT
p278
sg16
Nsbag4
(g5
g6
Ntp279
Rp280
(dp281
g10
Vpopulation
p282
sg12
g282
sg14
VNN
p283
sg16
Nsbag4
(g5
g6
Ntp284
Rp285
(dp286
g10
Vof
p287
sg12
g287
sg14
VIN
p288
sg16
Nsbag4
(g5
g6
Ntp289
Rp290
(dp291
g10
Vchina
p292
sg12
VChina
p293
sg14
VNNP
p294
sg16
Nsbag4
(g5
g6
Ntp295
Rp296
(dp297
g10
g60
sg12
g60
sg14
g61
sg16
Nsbasg33
S'populationof'
p298
sg35
g36
sa(dp299
g2
(lp300
g4
(g5
g6
Ntp301
Rp302
(dp303
g10
Vhow
p304
sg12
g304
sg14
VWRB
p305
sg16
Nsbag4
(g5
g6
Ntp306
Rp307
(dp308
g10
Vmany
p309
sg12
g309
sg14
VJJ
p310
sg16
Nsbag4
(g5
g6
Ntp311
Rp312
(dp313
g10
Vpeople
p314
sg12
g314
sg14
VNNS
p315
sg16
Nsbag4
(g5
g6
Ntp316
Rp317
(dp318
g10
Vlive
p319
sg12
g319
sg14
VVBP
p320
sg16
Nsbag4
(g5
g6
Ntp321
Rp322
(dp323
g10
Vin
p324
sg12
g324
sg14
VIN
p325
sg16
Nsbag4
(g5
g6
Ntp326
Rp327
(dp328
g10
Vaustralia
p329
sg12
VAustralia
p330
sg14
VNNP
p331
sg16
Nsbag4
(g5
g6
Ntp332
Rp333
(dp334
g10
g60
sg12
g60
sg14
g61
sg16
Nsbasg33
S'populationof'
p335
sg35
g36
sa(dp336
g2
(lp337
g4
(g5
g6
Ntp338
Rp339
(dp340
g10
Vlist
p341
sg12
VList
p342
sg14
VNNP
p343
sg16
Nsbag4
(g5
g6
Ntp344
Rp345
(dp346
g10
Vmovie
p347
sg12
Vmovies
p348
sg14
VNNS
p349
sg16
Nsbasg33
S'listmovies'
p350
sg35
g36
sa(dp351
g2
(lp352
g4
(g5
g6
Ntp353
Rp354
(dp355
g10
Vlist
p356
sg12
VList
p357
sg14
VNNP
p358
sg16
Nsbag4
(g5
g6
Ntp359
Rp360
(dp361
g10
Vmovie
p362
sg12
Vmovies
p363
sg14
VNNS
p364
sg16
Nsbag4
(g5
g6
Ntp365
Rp366
(dp367
g10
Vdirect
p368
sg12
Vdirected
p369
sg14
VVBD
p370
sg16
Nsbag4
(g5
g6
Ntp371
Rp372
(dp373
g10
Vby
p374
sg12
g374
sg14
VIN
p375
sg16
Nsbag4
(g5
g6
Ntp376
Rp377
(dp378
g10
Vquentin
p379
sg12
VQuentin
p380
sg14
VNNP
p381
sg16
Nsbag4
(g5
g6
Ntp382
Rp383
(dp384
g10
Vtarantino
p385
sg12
VTarantino
p386
sg14
VNNP
p387
sg16
Nsbag4
(g5
g6
Ntp388
Rp389
(dp390
g10
g61
sg12
g61
sg14
g61
sg16
Nsbasg33
S'moviesbydirector'
p391
sg35
g36
sa(dp392
g2
(lp393
g4
(g5
g6
Ntp394
Rp395
(dp396
g10
Vmovie
p397
sg12
Vmovies
p398
sg14
VNNS
p399
sg16
Nsbag4
(g5
g6
Ntp400
Rp401
(dp402
g10
Vdirect
p403
sg12
Vdirected
p404
sg14
VVBD
p405
sg16
Nsbag4
(g5
g6
Ntp406
Rp407
(dp408
g10
Vby
p409
sg12
g409
sg14
VIN
p410
sg16
Nsbag4
(g5
g6
Ntp411
Rp412
(dp413
g10
Vmartin
p414
sg12
VMartin
p415
sg14
VNNP
p416
sg16
Nsbag4
(g5
g6
Ntp417
Rp418
(dp419
g10
Vscorsese
p420
sg12
VScorsese
p421
sg14
VNNP
p422
sg16
Nsbasg33
S'moviesbydirector'
p423
sg35
g36
sa(dp424
g2
(lp425
g4
(g5
g6
Ntp426
Rp427
(dp428
g10
Vwhich
p429
sg12
g429
sg14
VWDT
p430
sg16
Nsbag4
(g5
g6
Ntp431
Rp432
(dp433
g10
Vmovie
p434
sg12
Vmovies
p435
sg14
VNNS
p436
sg16
Nsbag4
(g5
g6
Ntp437
Rp438
(dp439
g10
Vdo
p440
sg12
Vdid
p441
sg14
VVBD
p442
sg16
Nsbag4
(g5
g6
Ntp443
Rp444
(dp445
g10
Vmel
p446
sg12
VMel
p447
sg14
VNNP
p448
sg16
Nsbag4
(g5
g6
Ntp449
Rp450
(dp451
g10
Vgibson
p452
sg12
VGibson
p453
sg14
VNNP
p454
sg16
Nsbag4
(g5
g6
Ntp455
Rp456
(dp457
g10
Vdirect
p458
sg12
Vdirected
p459
sg14
VVBD
p460
sg16
Nsbasg33
S'moviesbydirector'
p461
sg35
g36
sa(dp462
g2
(lp463
g4
(g5
g6
Ntp464
Rp465
(dp466
g10
Vhow
p467
sg12
VHow
p468
sg14
VWRB
p469
sg16
Nsbag4
(g5
g6
Ntp470
Rp471
(dp472
g10
Vlong
p473
sg12
g473
sg14
VJJ
p474
sg16
Nsbag4
(g5
g6
Ntp475
Rp476
(dp477
g10
Vbe
p478
sg12
Vis
p479
sg14
VVBZ
p480
sg16
Nsbag4
(g5
g6
Ntp481
Rp482
(dp483
g10
Vpulp
p484
sg12
VPulp
p485
sg14
VNNP
p486
sg16
Nsbag4
(g5
g6
Ntp487
Rp488
(dp489
g10
Vfiction
p490
sg12
VFiction
p491
sg14
VNNP
p492
sg16
Nsbasg33
S'movieduration'
p493
sg35
g36
sa(dp494
g2
(lp495
g4
(g5
g6
Ntp496
Rp497
(dp498
g10
Vwhat
p499
sg12
VWhat
p500
sg14
VWP
p501
sg16
Nsbag4
(g5
g6
Ntp502
Rp503
(dp504
g10
Vbe
p505
sg12
Vis
p506
sg14
VVBZ
p507
sg16
Nsbag4
(g5
g6
Ntp508
Rp509
(dp510
g10
Vthe
p511
sg12
g511
sg14
VDT
p512
sg16
Nsbag4
(g5
g6
Ntp513
Rp514
(dp515
g10
Vduration
p516
sg12
g516
sg14
VNN
p517
sg16
Nsbag4
(g5
g6
Ntp518
Rp519
(dp520
g10
Vof
p521
sg12
g521
sg14
VIN
p522
sg16
Nsbag4
(g5
g6
Ntp523
Rp524
(dp525
g10
Vthe
p526
sg12
VThe
p527
sg14
VDT
p528
sg16
Nsbag4
(g5
g6
Ntp529
Rp530
(dp531
g10
Vthin
p532
sg12
VThin
p533
sg14
VNNP
p534
sg16
Nsbag4
(g5
g6
Ntp535
Rp536
(dp537
g10
Vred
p538
sg12
VRed
p539
sg14
VNNP
p540
sg16
Nsbag4
(g5
g6
Ntp541
Rp542
(dp543
g10
Vline
p544
sg12
VLine
p545
sg14
VNNP
p546
sg16
Nsbag4
(g5
g6
Ntp547
Rp548
(dp549
g10
g60
sg12
g60
sg14
g61
sg16
Nsbasg33
S'movieduration'
p550
sg35
g36
sa(dp551
g2
(lp552
g4
(g5
g6
Ntp553
Rp554
(dp555
g10
Vlist
p556
sg12
VList
p557
sg14
VNNP
p558
sg16
Nsbag4
(g5
g6
Ntp559
Rp560
(dp561
g10
Vmovie
p562
sg12
Vmovies
p563
sg14
VNNS
p564
sg16
Nsbag4
(g5
g6
Ntp565
Rp566
(dp567
g10
Vwith
p568
sg12
g568
sg14
VIN
p569
sg16
Nsbag4
(g5
g6
Ntp570
Rp571
(dp572
g10
Vhugh
p573
sg12
VHugh
p574
sg14
VNNP
p575
sg16
Nsbag4
(g5
g6
Ntp576
Rp577
(dp578
g10
Vlaurie
p579
sg12
VLaurie
p580
sg14
VNNP
p581
sg16
Nsbasg33
S'actedon'
p582
sg35
g36
sa(dp583
g2
(lp584
g4
(g5
g6
Ntp585
Rp586
(dp587
g10
Vmovies
p588
sg12
VMovies
p589
sg14
VNNS
p590
sg16
Nsbag4
(g5
g6
Ntp591
Rp592
(dp593
g10
Vwith
p594
sg12
g594
sg14
VIN
p595
sg16
Nsbag4
(g5
g6
Ntp596
Rp597
(dp598
g10
Vmatt
p599
sg12
VMatt
p600
sg14
VNNP
p601
sg16
Nsbag4
(g5
g6
Ntp602
Rp603
(dp604
g10
Vleblanc
p605
sg12
VLeBlanc
p606
sg14
VNNP
p607
sg16
Nsbasg33
S'actedon'
p608
sg35
g36
sa(dp609
g2
(lp610
g4
(g5
g6
Ntp611
Rp612
(dp613
g10
Vin
p614
sg12
VIn
p615
sg14
VIN
p616
sg16
Nsbag4
(g5
g6
Ntp617
Rp618
(dp619
g10
Vwhat
p620
sg12
g620
sg14
VWP
p621
sg16
Nsbag4
(g5
g6
Ntp622
Rp623
(dp624
g10
Vmovie
p625
sg12
Vmovies
p626
sg14
VNNS
p627
sg16
Nsbag4
(g5
g6
Ntp628
Rp629
(dp630
g10
Vdo
p631
sg12
Vdid
p632
sg14
VVBD
p633
sg16
Nsbag4
(g5
g6
Ntp634
Rp635
(dp636
g10
Vjennifer
p637
sg12
VJennifer
p638
sg14
VNNP
p639
sg16
Nsbag4
(g5
g6
Ntp640
Rp641
(dp642
g10
Vaniston
p643
sg12
VAniston
p644
sg14
VNNP
p645
sg16
Nsbag4
(g5
g6
Ntp646
Rp647
(dp648
g10
Vappear
p649
sg12
g649
sg14
VNN
p650
sg16
Nsbag4
(g5
g6
Ntp651
Rp652
(dp653
g10
g60
sg12
g60
sg14
g61
sg16
Nsbasg33
S'actedon'
p654
sg35
g36
sa(dp655
g2
(lp656
g4
(g5
g6
Ntp657
Rp658
(dp659
g10
Vwhich
p660
sg12
VWhich
p661
sg14
VWDT
p662
sg16
Nsbag4
(g5
g6
Ntp663
Rp664
(dp665
g10
Vmovie
p666
sg12
Vmovies
p667
sg14
VNNS
p668
sg16
Nsbag4
(g5
g6
Ntp669
Rp670
(dp671
g10
Vdo
p672
sg12
Vdid
p673
sg14
VVBD
p674
sg16
Nsbag4
(g5
g6
Ntp675
Rp676
(dp677
g10
Vmel
p678
sg12
VMel
p679
sg14
VNNP
p680
sg16
Nsbag4
(g5
g6
Ntp681
Rp682
(dp683
g10
Vgibson
p684
sg12
VGibson
p685
sg14
VNNP
p686
sg16
Nsbag4
(g5
g6
Ntp687
Rp688
(dp689
g10
Vstar
p690
sg12
Vstarred
p691
sg14
VVBD
p692
sg16
Nsbag4
(g5
g6
Ntp693
Rp694
(dp695
g10
g60
sg12
g60
sg14
g61
sg16
Nsbasg33
S'actedon'
p696
sg35
g36
sa(dp697
g2
(lp698
g4
(g5
g6
Ntp699
Rp700
(dp701
g10
Vmovies
p702
sg12
VMovies
p703
sg14
VNNS
p704
sg16
Nsbag4
(g5
g6
Ntp705
Rp706
(dp707
g10
Vstar
p708
sg12
Vstarring
p709
sg14
VVBG
p710
sg16
Nsbag4
(g5
g6
Ntp711
Rp712
(dp713
g10
Vwinona
p714
sg12
VWinona
p715
sg14
VNNP
p716
sg16
Nsbag4
(g5
g6
Ntp717
Rp718
(dp719
g10
Vryder
p720
sg12
VRyder
p721
sg14
VNNP
p722
sg16
Nsbasg33
S'actedon'
p723
sg35
g36
sa(dp724
g2
(lp725
g4
(g5
g6
Ntp726
Rp727
(dp728
g10
Vwhen
p729
sg12
g729
sg14
VWRB
p730
sg16
Nsbag4
(g5
g6
Ntp731
Rp732
(dp733
g10
Vbe
p734
sg12
Vwas
p735
sg14
VVBD
p736
sg16
Nsbag4
(g5
g6
Ntp737
Rp738
(dp739
g10
Vgravity
p740
sg12
g740
sg14
VNN
p741
sg16
Nsbag4
(g5
g6
Ntp742
Rp743
(dp744
g10
Vrelease
p745
sg12
Vreleased
p746
sg14
VVBN
p747
sg16
Nsbag4
(g5
g6
Ntp748
Rp749
(dp750
g10
g60
sg12
g60
sg14
g61
sg16
Nsbasg33
S'moviereleasedate'
p751
sg35
g36
sa(dp752
g2
(lp753
g4
(g5
g6
Ntp754
Rp755
(dp756
g10
Vrelease
p757
sg12
g757
sg14
VNN
p758
sg16
Nsbag4
(g5
g6
Ntp759
Rp760
(dp761
g10
Vdate
p762
sg12
g762
sg14
VNN
p763
sg16
Nsbag4
(g5
g6
Ntp764
Rp765
(dp766
g10
Vof
p767
sg12
g767
sg14
VIN
p768
sg16
Nsbag4
(g5
g6
Ntp769
Rp770
(dp771
g10
Vthe
p772
sg12
g772
sg14
VDT
p773
sg16
Nsbag4
(g5
g6
Ntp774
Rp775
(dp776
g10
Vhobbit
p777
sg12
g777
sg14
VNN
p778
sg16
Nsbag4
(g5
g6
Ntp779
Rp780
(dp781
g10
g60
sg12
g60
sg14
g61
sg16
Nsbasg33
S'moviereleasedate'
p782
sg35
g36
sa(dp783
g2
(lp784
g4
(g5
g6
Ntp785
Rp786
(dp787
g10
Vwho
p788
sg12
VWho
p789
sg14
VWP
p790
sg16
Nsbag4
(g5
g6
Ntp791
Rp792
(dp793
g10
Vbe
p794
sg12
Vis
p795
sg14
VVBZ
p796
sg16
Nsbag4
(g5
g6
Ntp797
Rp798
(dp799
g10
Vthe
p800
sg12
g800
sg14
VDT
p801
sg16
Nsbag4
(g5
g6
Ntp802
Rp803
(dp804
g10
Vdirector
p805
sg12
g805
sg14
VNN
p806
sg16
Nsbag4
(g5
g6
Ntp807
Rp808
(dp809
g10
Vof
p810
sg12
g810
sg14
VIN
p811
sg16
Nsbag4
(g5
g6
Ntp812
Rp813
(dp814
g10
Vbig
p815
sg12
VBig
p816
sg14
VNNP
p817
sg16
Nsbag4
(g5
g6
Ntp818
Rp819
(dp820
g10
Vfish
p821
sg12
VFish
p822
sg14
VNNP
p823
sg16
Nsbag4
(g5
g6
Ntp824
Rp825
(dp826
g10
g60
sg12
g60
sg14
g61
sg16
Nsbasg33
S'directorof'
p827
sg35
g36
sa(dp828
g2
(lp829
g4
(g5
g6
Ntp830
Rp831
(dp832
g10
Vwho
p833
sg12
g833
sg14
VWP
p834
sg16
Nsbag4
(g5
g6
Ntp835
Rp836
(dp837
g10
Vdirect
p838
sg12
Vdirected
p839
sg14
VVBN
p840
sg16
Nsbag4
(g5
g6
Ntp841
Rp842
(dp843
g10
Vpocahontas
p844
sg12
VPocahontas
p845
sg14
VNNP
p846
sg16
Nsbag4
(g5
g6
Ntp847
Rp848
(dp849
g10
g60
sg12
g60
sg14
g61
sg16
Nsbasg33
S'directorof'
p850
sg35
g36
sa(dp851
g2
(lp852
g4
(g5
g6
Ntp853
Rp854
(dp855
g10
Vwho
p856
sg12
g856
sg14
VWP
p857
sg16
Nsbag4
(g5
g6
Ntp858
Rp859
(dp860
g10
Vbe
p861
sg12
Vare
p862
sg14
VVBP
p863
sg16
Nsbag4
(g5
g6
Ntp864
Rp865
(dp866
g10
Vthe
p867
sg12
g867
sg14
VDT
p868
sg16
Nsbag4
(g5
g6
Ntp869
Rp870
(dp871
g10
Vactor
p872
sg12
Vactors
p873
sg14
VNNS
p874
sg16
Nsbag4
(g5
g6
Ntp875
Rp876
(dp877
g10
Vof
p878
sg12
g878
sg14
VIN
p879
sg16
Nsbag4
(g5
g6
Ntp880
Rp881
(dp882
g10
Vtitanic
p883
sg12
VTitanic
p884
sg14
VNNP
p885
sg16
Nsbag4
(g5
g6
Ntp886
Rp887
(dp888
g10
g60
sg12
g60
sg14
g61
sg16
Nsbasg33
S'actorsof'
p889
sg35
g36
sa(dp890
g2
(lp891
g4
(g5
g6
Ntp892
Rp893
(dp894
g10
Vwho
p895
sg12
g895
sg14
VWP
p896
sg16
Nsbag4
(g5
g6
Ntp897
Rp898
(dp899
g10
Vact
p900
sg12
Vacted
p901
sg14
VVBN
p902
sg16
Nsbag4
(g5
g6
Ntp903
Rp904
(dp905
g10
Vin
p906
sg12
g906
sg14
VIN
p907
sg16
Nsbag4
(g5
g6
Ntp908
Rp909
(dp910
g10
Valien
p911
sg12
VAlien
p912
sg14
VNNP
p913
sg16
Nsbag4
(g5
g6
Ntp914
Rp915
(dp916
g10
g60
sg12
g60
sg14
g61
sg16
Nsbasg33
S'actorsof'
p917
sg35
g36
sa(dp918
g2
(lp919
g4
(g5
g6
Ntp920
Rp921
(dp922
g10
Vwho
p923
sg12
g923
sg14
VWP
p924
sg16
Nsbag4
(g5
g6
Ntp925
Rp926
(dp927
g10
Vstar
p928
sg12
Vstarred
p929
sg14
VVBN
p930
sg16
Nsbag4
(g5
g6
Ntp931
Rp932
(dp933
g10
Vin
p934
sg12
g934
sg14
VIN
p935
sg16
Nsbag4
(g5
g6
Ntp936
Rp937
(dp938
g10
Vdepredator
p939
sg12
VDepredator
p940
sg14
VNNP
p941
sg16
Nsbag4
(g5
g6
Ntp942
Rp943
(dp944
g10
g60
sg12
g60
sg14
g61
sg16
Nsbasg33
S'actorsof'
p945
sg35
g36
sa(dp946
g2
(lp947
g4
(g5
g6
Ntp948
Rp949
(dp950
g10
Vactors
p951
sg12
VActors
p952
sg14
VNNS
p953
sg16
Nsbag4
(g5
g6
Ntp954
Rp955
(dp956
g10
Vof
p957
sg12
g957
sg14
VIN
p958
sg16
Nsbag4
(g5
g6
Ntp959
Rp960
(dp961
g10
Vfight
p962
sg12
VFight
p963
sg14
VNNP
p964
sg16
Nsbag4
(g5
g6
Ntp965
Rp966
(dp967
g10
Vclub
p968
sg12
VClub
p969
sg14
VNNP
p970
sg16
Nsbasg33
S'actorsof'
p971
sg35
g36
sa(dp972
g2
(lp973
g4
(g5
g6
Ntp974
Rp975
(dp976
g10
Vwhat
p977
sg12
g977
sg14
VWP
p978
sg16
Nsbag4
(g5
g6
Ntp979
Rp980
(dp981
g10
Vbe
p982
sg12
Vis
p983
sg14
VVBZ
p984
sg16
Nsbag4
(g5
g6
Ntp985
Rp986
(dp987
g10
Vthe
p988
sg12
g988
sg14
VDT
p989
sg16
Nsbag4
(g5
g6
Ntp990
Rp991
(dp992
g10
Vplot
p993
sg12
g993
sg14
VNN
p994
sg16
Nsbag4
(g5
g6
Ntp995
Rp996
(dp997
g10
Vof
p998
sg12
g998
sg14
VIN
p999
sg16
Nsbag4
(g5
g6
Ntp1000
Rp1001
(dp1002
g10
Vtitanic
p1003
sg12
VTitanic
p1004
sg14
VNNP
p1005
sg16
Nsbasg33
S'plotof'
p1006
sg35
g36
sa(dp1007
g2
(lp1008
g4
(g5
g6
Ntp1009
Rp1010
(dp1011
g10
Vwhat
p1012
sg12
g1012
sg14
VWP
p1013
sg16
Nsbag4
(g5
g6
Ntp1014
Rp1015
(dp1016
g10
Vbe
p1017
sg12
Vwas
p1018
sg14
VVBD
p1019
sg16
Nsbag4
(g5
g6
Ntp1020
Rp1021
(dp1022
g10
Vsherk
p1023
sg12
VSherk
p1024
sg14
VNNP
p1025
sg16
Nsbag4
(g5
g6
Ntp1026
Rp1027
(dp1028
g10
Vabout
p1029
sg12
g1029
sg14
VIN
p1030
sg16
Nsbag4
(g5
g6
Ntp1031
Rp1032
(dp1033
g10
g60
sg12
g60
sg14
g61
sg16
Nsbasg33
S'plotof'
p1034
sg35
g36
sa(dp1035
g2
(lp1036
g4
(g5
g6
Ntp1037
Rp1038
(dp1039
g10
Vradiohead
p1040
sg12
VRadiohead
p1041
sg14
VNNP
p1042
sg16
Nsbag4
(g5
g6
Ntp1043
Rp1044
(dp1045
g10
Vmember
p1046
sg12
Vmembers
p1047
sg14
VNNS
p1048
sg16
Nsbasg33
S'bandmembers'
p1049
sg35
g36
sa(dp1050
g2
(lp1051
g4
(g5
g6
Ntp1052
Rp1053
(dp1054
g10
Vwhat
p1055
sg12
VWhat
p1056
sg14
VWP
p1057
sg16
Nsbag4
(g5
g6
Ntp1058
Rp1059
(dp1060
g10
Vbe
p1061
sg12
Vare
p1062
sg14
VVBP
p1063
sg16
Nsbag4
(g5
g6
Ntp1064
Rp1065
(dp1066
g10
Vthe
p1067
sg12
g1067
sg14
VDT
p1068
sg16
Nsbag4
(g5
g6
Ntp1069
Rp1070
(dp1071
g10
Vmember
p1072
sg12
Vmembers
p1073
sg14
VNNS
p1074
sg16
Nsbag4
(g5
g6
Ntp1075
Rp1076
(dp1077
g10
Vof
p1078
sg12
g1078
sg14
VIN
p1079
sg16
Nsbag4
(g5
g6
Ntp1080
Rp1081
(dp1082
g10
Vmetallica
p1083
sg12
VMetallica
p1084
sg14
VNNP
p1085
sg16
Nsbag4
(g5
g6
Ntp1086
Rp1087
(dp1088
g10
g60
sg12
g60
sg14
g61
sg16
Nsbasg33
S'bandmembers'
p1089
sg35
g36
sa(dp1090
g2
(lp1091
g4
(g5
g6
Ntp1092
Rp1093
(dp1094
g10
Vwho
p1095
sg12
g1095
sg14
VWP
p1096
sg16
Nsbag4
(g5
g6
Ntp1097
Rp1098
(dp1099
g10
Vbe
p1100
sg12
Vwere
p1101
sg14
VVBD
p1102
sg16
Nsbag4
(g5
g6
Ntp1103
Rp1104
(dp1105
g10
Vthe
p1106
sg12
g1106
sg14
VDT
p1107
sg16
Nsbag4
(g5
g6
Ntp1108
Rp1109
(dp1110
g10
Vmember
p1111
sg12
Vmembers
p1112
sg14
VNNS
p1113
sg16
Nsbag4
(g5
g6
Ntp1114
Rp1115
(dp1116
g10
Vof
p1117
sg12
g1117
sg14
VIN
p1118
sg16
Nsbag4
(g5
g6
Ntp1119
Rp1120
(dp1121
g10
Vpink
p1122
sg12
g1122
sg14
VNN
p1123
sg16
Nsbag4
(g5
g6
Ntp1124
Rp1125
(dp1126
g10
Vfloyd
p1127
sg12
g1127
sg14
VNN
p1128
sg16
Nsbag4
(g5
g6
Ntp1129
Rp1130
(dp1131
g10
g60
sg12
g60
sg14
g61
sg16
Nsbasg33
S'bandmembers'
p1132
sg35
g36
sa(dp1133
g2
(lp1134
g4
(g5
g6
Ntp1135
Rp1136
(dp1137
g10
Vwhen
p1138
sg12
VWhen
p1139
sg14
VWRB
p1140
sg16
Nsbag4
(g5
g6
Ntp1141
Rp1142
(dp1143
g10
Vbe
p1144
sg12
Vwas
p1145
sg14
VVBD
p1146
sg16
Nsbag4
(g5
g6
Ntp1147
Rp1148
(dp1149
g10
Vkorn
p1150
sg12
VKorn
p1151
sg14
VNNP
p1152
sg16
Nsbag4
(g5
g6
Ntp1153
Rp1154
(dp1155
g10
Vform
p1156
sg12
Vformed
p1157
sg14
VVBN
p1158
sg16
Nsbag4
(g5
g6
Ntp1159
Rp1160
(dp1161
g10
g60
sg12
g60
sg14
g61
sg16
Nsbasg33
S'bandfoundation'
p1162
sg35
g36
sa(dp1163
g2
(lp1164
g4
(g5
g6
Ntp1165
Rp1166
(dp1167
g10
Vwhat
p1168
sg12
VWhat
p1169
sg14
VWP
p1170
sg16
Nsbag4
(g5
g6
Ntp1171
Rp1172
(dp1173
g10
Vbe
p1174
sg12
Vis
p1175
sg14
VVBZ
p1176
sg16
Nsbag4
(g5
g6
Ntp1177
Rp1178
(dp1179
g10
Vthe
p1180
sg12
g1180
sg14
VDT
p1181
sg16
Nsbag4
(g5
g6
Ntp1182
Rp1183
(dp1184
g10
Vmusic
p1185
sg12
g1185
sg14
VJJ
p1186
sg16
Nsbag4
(g5
g6
Ntp1187
Rp1188
(dp1189
g10
Vgenre
p1190
sg12
g1190
sg14
VNN
p1191
sg16
Nsbag4
(g5
g6
Ntp1192
Rp1193
(dp1194
g10
Vof
p1195
sg12
g1195
sg14
VIN
p1196
sg16
Nsbag4
(g5
g6
Ntp1197
Rp1198
(dp1199
g10
Vgorillaz
p1200
sg12
VGorillaz
p1201
sg14
VNNP
p1202
sg16
Nsbag4
(g5
g6
Ntp1203
Rp1204
(dp1205
g10
g60
sg12
g60
sg14
g61
sg16
Nsbasg33
S'musicgenre'
p1206
sg35
g36
sa(dp1207
g2
(lp1208
g4
(g5
g6
Ntp1209
Rp1210
(dp1211
g10
Vmusic
p1212
sg12
VMusic
p1213
sg14
VNNP
p1214
sg16
Nsbag4
(g5
g6
Ntp1215
Rp1216
(dp1217
g10
Vgenre
p1218
sg12
g1218
sg14
VVBD
p1219
sg16
Nsbag4
(g5
g6
Ntp1220
Rp1221
(dp1222
g10
Vof
p1223
sg12
g1223
sg14
VIN
p1224
sg16
Nsbag4
(g5
g6
Ntp1225
Rp1226
(dp1227
g10
Vradiohead
p1228
sg12
VRadiohead
p1229
sg14
VNNP
p1230
sg16
Nsbasg33
S'musicgenre'
p1231
sg35
g36
sa(dp1232
g2
(lp1233
g4
(g5
g6
Ntp1234
Rp1235
(dp1236
g10
Vlist
p1237
sg12
VList
p1238
sg14
VNNP
p1239
sg16
Nsbag4
(g5
g6
Ntp1240
Rp1241
(dp1242
g10
Valbum
p1243
sg12
Valbums
p1244
sg14
VNNS
p1245
sg16
Nsbag4
(g5
g6
Ntp1246
Rp1247
(dp1248
g10
Vof
p1249
sg12
g1249
sg14
VIN
p1250
sg16
Nsbag4
(g5
g6
Ntp1251
Rp1252
(dp1253
g10
Vpink
p1254
sg12
VPink
p1255
sg14
VNNP
p1256
sg16
Nsbag4
(g5
g6
Ntp1257
Rp1258
(dp1259
g10
Vfloyd
p1260
sg12
VFloyd
p1261
sg14
VNNP
p1262
sg16
Nsbasg33
S'albumsofband'
p1263
sg35
g36
sa(dp1264
g2
(lp1265
g4
(g5
g6
Ntp1266
Rp1267
(dp1268
g10
Vwhat
p1269
sg12
VWhat
p1270
sg14
VWP
p1271
sg16
Nsbag4
(g5
g6
Ntp1272
Rp1273
(dp1274
g10
Valbum
p1275
sg12
Valbums
p1276
sg14
VNNS
p1277
sg16
Nsbag4
(g5
g6
Ntp1278
Rp1279
(dp1280
g10
Vdo
p1281
sg12
Vdid
p1282
sg14
VVBD
p1283
sg16
Nsbag4
(g5
g6
Ntp1284
Rp1285
(dp1286
g10
Vpearl
p1287
sg12
VPearl
p1288
sg14
VNNP
p1289
sg16
Nsbag4
(g5
g6
Ntp1290
Rp1291
(dp1292
g10
Vjam
p1293
sg12
VJam
p1294
sg14
VNNP
p1295
sg16
Nsbag4
(g5
g6
Ntp1296
Rp1297
(dp1298
g10
Vrecord
p1299
sg12
g1299
sg14
VNN
p1300
sg16
Nsbag4
(g5
g6
Ntp1301
Rp1302
(dp1303
g10
g60
sg12
g60
sg14
g61
sg16
Nsbasg33
S'albumsofband'
p1304
sg35
g36
sa(dp1305
g2
(lp1306
g4
(g5
g6
Ntp1307
Rp1308
(dp1309
g10
Valbums
p1310
sg12
VAlbums
p1311
sg14
VNNS
p1312
sg16
Nsbag4
(g5
g6
Ntp1313
Rp1314
(dp1315
g10
Vby
p1316
sg12
g1316
sg14
VIN
p1317
sg16
Nsbag4
(g5
g6
Ntp1318
Rp1319
(dp1320
g10
Vmetallica
p1321
sg12
VMetallica
p1322
sg14
VNNP
p1323
sg16
Nsbasg33
S'albumsofband'
p1324
sg35
g36
sa(dp1325
g2
(lp1326
g4
(g5
g6
Ntp1327
Rp1328
(dp1329
g10
Vwhat
p1330
sg12
g1330
sg14
VWP
p1331
sg16
Nsbag4
(g5
g6
Ntp1332
Rp1333
(dp1334
g10
Valbum
p1335
sg12
Valbums
p1336
sg14
VNNS
p1337
sg16
Nsbag4
(g5
g6
Ntp1338
Rp1339
(dp1340
g10
Vdo
p1341
sg12
Vdid
p1342
sg14
VVBD
p1343
sg16
Nsbag4
(g5
g6
Ntp1344
Rp1345
(dp1346
g10
Vthe
p1347
sg12
VThe
p1348
sg14
VDT
p1349
sg16
Nsbag4
(g5
g6
Ntp1350
Rp1351
(dp1352
g10
Vbeatles
p1353
sg12
VBeatles
p1354
sg14
VNNP
p1355
sg16
Nsbag4
(g5
g6
Ntp1356
Rp1357
(dp1358
g10
Vmake
p1359
sg12
g1359
sg14
VVBP
p1360
sg16
Nsbag4
(g5
g6
Ntp1361
Rp1362
(dp1363
g10
g60
sg12
g60
sg14
g61
sg16
Nsbasg33
S'albumsofband'
p1364
sg35
g36
sa(dp1365
g2
(lp1366
g4
(g5
g6
Ntp1367
Rp1368
(dp1369
g10
Vwho
p1370
sg12
VWho
p1371
sg14
VWP
p1372
sg16
Nsbag4
(g5
g6
Ntp1373
Rp1374
(dp1375
g10
Vbe
p1376
sg12
Vis
p1377
sg14
VVBZ
p1378
sg16
Nsbag4
(g5
g6
Ntp1379
Rp1380
(dp1381
g10
Vtom
p1382
sg12
VTom
p1383
sg14
VNNP
p1384
sg16
Nsbag4
(g5
g6
Ntp1385
Rp1386
(dp1387
g10
Vcruise
p1388
sg12
VCruise
p1389
sg14
VNNP
p1390
sg16
Nsbag4
(g5
g6
Ntp1391
Rp1392
(dp1393
g10
g60
sg12
g60
sg14
g61
sg16
Nsbasg33
S'whois'
p1394
sg35
g36
sa(dp1395
g2
(lp1396
g4
(g5
g6
Ntp1397
Rp1398
(dp1399
g10
Vhow
p1400
sg12
VHow
p1401
sg14
VWRB
p1402
sg16
Nsbag4
(g5
g6
Ntp1403
Rp1404
(dp1405
g10
Vold
p1406
sg12
g1406
sg14
VJJ
p1407
sg16
Nsbag4
(g5
g6
Ntp1408
Rp1409
(dp1410
g10
Vbe
p1411
sg12
Vis
p1412
sg14
VVBZ
p1413
sg16
Nsbag4
(g5
g6
Ntp1414
Rp1415
(dp1416
g10
Vbob
p1417
sg12
VBob
p1418
sg14
VNNP
p1419
sg16
Nsbag4
(g5
g6
Ntp1420
Rp1421
(dp1422
g10
Vdylan
p1423
sg12
VDylan
p1424
sg14
VNNP
p1425
sg16
Nsbasg33
S'howoldis'
p1426
sg35
g36
sa(dp1427
g2
(lp1428
g4
(g5
g6
Ntp1429
Rp1430
(dp1431
g10
Vwhere
p1432
sg12
VWhere
p1433
sg14
VWRB
p1434
sg16
Nsbag4
(g5
g6
Ntp1435
Rp1436
(dp1437
g10
Vbe
p1438
sg12
Vis
p1439
sg14
VVBZ
p1440
sg16
Nsbag4
(g5
g6
Ntp1441
Rp1442
(dp1443
g10
Vbill
p1444
sg12
VBill
p1445
sg14
VNNP
p1446
sg16
Nsbag4
(g5
g6
Ntp1447
Rp1448
(dp1449
g10
Vgates
p1450
sg12
VGates
p1451
sg14
VNNP
p1452
sg16
Nsbag4
(g5
g6
Ntp1453
Rp1454
(dp1455
g10
Vfrom
p1456
sg12
g1456
sg14
VIN
p1457
sg16
Nsbag4
(g5
g6
Ntp1458
Rp1459
(dp1460
g10
g60
sg12
g60
sg14
g61
sg16
Nsbasg33
S'whereisfrom'
p1461
sg35
g36
sa(dp1462
g2
(lp1463
g4
(g5
g6
Ntp1464
Rp1465
(dp1466
g10
Vwhat
p1467
sg12
VWhat
p1468
sg14
VWP
p1469
sg16
Nsbag4
(g5
g6
Ntp1470
Rp1471
(dp1472
g10
Vbe
p1473
sg12
Vis
p1474
sg14
VVBZ
p1475
sg16
Nsbag4
(g5
g6
Ntp1476
Rp1477
(dp1478
g10
Vthe
p1479
sg12
g1479
sg14
VDT
p1480
sg16
Nsbag4
(g5
g6
Ntp1481
Rp1482
(dp1483
g10
Vcast
p1484
sg12
g1484
sg14
VNN
p1485
sg16
Nsbag4
(g5
g6
Ntp1486
Rp1487
(dp1488
g10
Vof
p1489
sg12
g1489
sg14
VIN
p1490
sg16
Nsbag4
(g5
g6
Ntp1491
Rp1492
(dp1493
g10
Vfriends
p1494
sg12
VFriends
p1495
sg14
VNNPS
p1496
sg16
Nsbag4
(g5
g6
Ntp1497
Rp1498
(dp1499
g10
g60
sg12
g60
sg14
g61
sg16
Nsbasg33
S'castof'
p1500
sg35
g36
sa(dp1501
g2
(lp1502
g4
(g5
g6
Ntp1503
Rp1504
(dp1505
g10
Vwho
p1506
sg12
VWho
p1507
sg14
VWP
p1508
sg16
Nsbag4
(g5
g6
Ntp1509
Rp1510
(dp1511
g10
Vworks
p1512
sg12
g1512
sg14
VNNS
p1513
sg16
Nsbag4
(g5
g6
Ntp1514
Rp1515
(dp1516
g10
Vin
p1517
sg12
g1517
sg14
VIN
p1518
sg16
Nsbag4
(g5
g6
Ntp1519
Rp1520
(dp1521
g10
Vbreaking
p1522
sg12
VBreaking
p1523
sg14
VNNP
p1524
sg16
Nsbag4
(g5
g6
Ntp1525
Rp1526
(dp1527
g10
Vbad
p1528
sg12
VBad
p1529
sg14
VNNP
p1530
sg16
Nsbag4
(g5
g6
Ntp1531
Rp1532
(dp1533
g10
g60
sg12
g60
sg14
g61
sg16
Nsbasg33
S'castof'
p1534
sg35
g36
sa(dp1535
g2
(lp1536
g4
(g5
g6
Ntp1537
Rp1538
(dp1539
g10
Vlist
p1540
sg12
VList
p1541
sg14
VNNP
p1542
sg16
Nsbag4
(g5
g6
Ntp1543
Rp1544
(dp1545
g10
Vactor
p1546
sg12
Vactors
p1547
sg14
VNNS
p1548
sg16
Nsbag4
(g5
g6
Ntp1549
Rp1550
(dp1551
g10
Vof
p1552
sg12
g1552
sg14
VIN
p1553
sg16
Nsbag4
(g5
g6
Ntp1554
Rp1555
(dp1556
g10
Vseinfeld
p1557
sg12
VSeinfeld
p1558
sg14
VNNP
p1559
sg16
Nsbasg33
S'castof'
p1560
sg35
g36
sa(dp1561
g2
(lp1562
g4
(g5
g6
Ntp1563
Rp1564
(dp1565
g10
Vlist
p1566
sg12
VList
p1567
sg14
VNNP
p1568
sg16
Nsbag4
(g5
g6
Ntp1569
Rp1570
(dp1571
g10
Vtv
p1572
sg12
VTV
p1573
sg14
VNN
p1574
sg16
Nsbag4
(g5
g6
Ntp1575
Rp1576
(dp1577
g10
Vshow
p1578
sg12
Vshows
p1579
sg14
VVBZ
p1580
sg16
Nsbasg33
S'listtvshows'
p1581
sg35
g36
sa(dp1582
g2
(lp1583
g4
(g5
g6
Ntp1584
Rp1585
(dp1586
g10
Vhow
p1587
sg12
VHow
p1588
sg14
VWRB
p1589
sg16
Nsbag4
(g5
g6
Ntp1590
Rp1591
(dp1592
g10
Vmany
p1593
sg12
g1593
sg14
VJJ
p1594
sg16
Nsbag4
(g5
g6
Ntp1595
Rp1596
(dp1597
g10
Vepisode
p1598
sg12
Vepisodes
p1599
sg14
VNNS
p1600
sg16
Nsbag4
(g5
g6
Ntp1601
Rp1602
(dp1603
g10
Vdo
p1604
sg12
Vdoes
p1605
sg14
VVBZ
p1606
sg16
Nsbag4
(g5
g6
Ntp1607
Rp1608
(dp1609
g10
Vseinfeld
p1610
sg12
VSeinfeld
p1611
sg14
VNNP
p1612
sg16
Nsbag4
(g5
g6
Ntp1613
Rp1614
(dp1615
g10
Vhave
p1616
sg12
g1616
sg14
VVB
p1617
sg16
Nsbag4
(g5
g6
Ntp1618
Rp1619
(dp1620
g10
g60
sg12
g60
sg14
g61
sg16
Nsbasg33
S'episodecount'
p1621
sg35
g36
sa(dp1622
g2
(lp1623
g4
(g5
g6
Ntp1624
Rp1625
(dp1626
g10
Vnumber
p1627
sg12
VNumber
p1628
sg14
VNNP
p1629
sg16
Nsbag4
(g5
g6
Ntp1630
Rp1631
(dp1632
g10
Vof
p1633
sg12
g1633
sg14
VIN
p1634
sg16
Nsbag4
(g5
g6
Ntp1635
Rp1636
(dp1637
g10
Vepisode
p1638
sg12
Vepisodes
p1639
sg14
VNNS
p1640
sg16
Nsbag4
(g5
g6
Ntp1641
Rp1642
(dp1643
g10
Vof
p1644
sg12
g1644
sg14
VIN
p1645
sg16
Nsbag4
(g5
g6
Ntp1646
Rp1647
(dp1648
g10
Vseinfeld
p1649
sg12
VSeinfeld
p1650
sg14
VNNP
p1651
sg16
Nsbasg33
S'episodecount'
p1652
sg35
g36
sa(dp1653
g2
(lp1654
g4
(g5
g6
Ntp1655
Rp1656
(dp1657
g10
Vlist
p1658
sg12
VList
p1659
sg14
VNNP
p1660
sg16
Nsbag4
(g5
g6
Ntp1661
Rp1662
(dp1663
g10
Vshow
p1664
sg12
Vshows
p1665
sg14
VVBZ
p1666
sg16
Nsbag4
(g5
g6
Ntp1667
Rp1668
(dp1669
g10
Vwith
p1670
sg12
g1670
sg14
VIN
p1671
sg16
Nsbag4
(g5
g6
Ntp1672
Rp1673
(dp1674
g10
Vhugh
p1675
sg12
VHugh
p1676
sg14
VNNP
p1677
sg16
Nsbag4
(g5
g6
Ntp1678
Rp1679
(dp1680
g10
Vlaurie
p1681
sg12
VLaurie
p1682
sg14
VNNP
p1683
sg16
Nsbasg33
S'showswith'
p1684
sg35
g36
sa(dp1685
g2
(lp1686
g4
(g5
g6
Ntp1687
Rp1688
(dp1689
g10
Vin
p1690
sg12
VIn
p1691
sg14
VIN
p1692
sg16
Nsbag4
(g5
g6
Ntp1693
Rp1694
(dp1695
g10
Vwhat
p1696
sg12
g1696
sg14
VWP
p1697
sg16
Nsbag4
(g5
g6
Ntp1698
Rp1699
(dp1700
g10
Vshow
p1701
sg12
Vshows
p1702
sg14
VNNS
p1703
sg16
Nsbag4
(g5
g6
Ntp1704
Rp1705
(dp1706
g10
Vdo
p1707
sg12
Vdoes
p1708
sg14
VVBZ
p1709
sg16
Nsbag4
(g5
g6
Ntp1710
Rp1711
(dp1712
g10
Vjennifer
p1713
sg12
VJennifer
p1714
sg14
VNNP
p1715
sg16
Nsbag4
(g5
g6
Ntp1716
Rp1717
(dp1718
g10
Vaniston
p1719
sg12
VAniston
p1720
sg14
VNNP
p1721
sg16
Nsbag4
(g5
g6
Ntp1722
Rp1723
(dp1724
g10
Vappear
p1725
sg12
Vappears
p1726
sg14
VVBZ
p1727
sg16
Nsbag4
(g5
g6
Ntp1728
Rp1729
(dp1730
g10
g60
sg12
g60
sg14
g61
sg16
Nsbasg33
S'showswith'
p1731
sg35
g36
sa(dp1732
g2
(lp1733
g4
(g5
g6
Ntp1734
Rp1735
(dp1736
g10
Vshows
p1737
sg12
VShows
p1738
sg14
VNNS
p1739
sg16
Nsbag4
(g5
g6
Ntp1740
Rp1741
(dp1742
g10
Vwith
p1743
sg12
g1743
sg14
VIN
p1744
sg16
Nsbag4
(g5
g6
Ntp1745
Rp1746
(dp1747
g10
Vmatt
p1748
sg12
VMatt
p1749
sg14
VNNP
p1750
sg16
Nsbag4
(g5
g6
Ntp1751
Rp1752
(dp1753
g10
Vleblanc
p1754
sg12
VLeBlanc
p1755
sg14
VNNP
p1756
sg16
Nsbasg33
S'showswith'
p1757
sg35
g36
sa(dp1758
g2
(lp1759
g4
(g5
g6
Ntp1760
Rp1761
(dp1762
g10
Vwho
p1763
sg12
VWho
p1764
sg14
VWP
p1765
sg16
Nsbag4
(g5
g6
Ntp1766
Rp1767
(dp1768
g10
Vbe
p1769
sg12
Vis
p1770
sg14
VVBZ
p1771
sg16
Nsbag4
(g5
g6
Ntp1772
Rp1773
(dp1774
g10
Vthe
p1775
sg12
g1775
sg14
VDT
p1776
sg16
Nsbag4
(g5
g6
Ntp1777
Rp1778
(dp1779
g10
Vcreator
p1780
sg12
g1780
sg14
VNN
p1781
sg16
Nsbag4
(g5
g6
Ntp1782
Rp1783
(dp1784
g10
Vof
p1785
sg12
g1785
sg14
VIN
p1786
sg16
Nsbag4
(g5
g6
Ntp1787
Rp1788
(dp1789
g10
Vbreaking
p1790
sg12
VBreaking
p1791
sg14
VNNP
p1792
sg16
Nsbag4
(g5
g6
Ntp1793
Rp1794
(dp1795
g10
Vbad
p1796
sg12
VBad
p1797
sg14
VNNP
p1798
sg16
Nsbag4
(g5
g6
Ntp1799
Rp1800
(dp1801
g10
g60
sg12
g60
sg14
g61
sg16
Nsbasg33
S'creatorof'
p1802
sg35
g36
sa(dp1803
g2
(lp1804
g4
(g5
g6
Ntp1805
Rp1806
(dp1807
g10
Vwho
p1808
sg12
VWho
p1809
sg14
VWP
p1810
sg16
Nsbag4
(g5
g6
Ntp1811
Rp1812
(dp1813
g10
Vbe
p1814
sg12
Vare
p1815
sg14
VVBP
p1816
sg16
Nsbag4
(g5
g6
Ntp1817
Rp1818
(dp1819
g10
Vthe
p1820
sg12
g1820
sg14
VDT
p1821
sg16
Nsbag4
(g5
g6
Ntp1822
Rp1823
(dp1824
g10
Vcreator
p1825
sg12
Vcreators
p1826
sg14
VNNS
p1827
sg16
Nsbag4
(g5
g6
Ntp1828
Rp1829
(dp1830
g10
Vof
p1831
sg12
g1831
sg14
VIN
p1832
sg16
Nsbag4
(g5
g6
Ntp1833
Rp1834
(dp1835
g10
Vfriends
p1836
sg12
VFriends
p1837
sg14
VNNPS
p1838
sg16
Nsbag4
(g5
g6
Ntp1839
Rp1840
(dp1841
g10
g60
sg12
g60
sg14
g61
sg16
Nsbasg33
S'creatorof'
p1842
sg35
g36
sa(dp1843
g2
(lp1844
g4
(g5
g6
Ntp1845
Rp1846
(dp1847
g10
Vwho
p1848
sg12
g1848
sg14
VWP
p1849
sg16
Nsbag4
(g5
g6
Ntp1850
Rp1851
(dp1852
g10
Vwrite
p1853
sg12
Vwrote
p1854
sg14
VVBD
p1855
sg16
Nsbag4
(g5
g6
Ntp1856
Rp1857
(dp1858
g10
Vthe
p1859
sg12
VThe
p1860
sg14
VDT
p1861
sg16
Nsbag4
(g5
g6
Ntp1862
Rp1863
(dp1864
g10
Vlittle
p1865
sg12
VLittle
p1866
sg14
VNNP
p1867
sg16
Nsbag4
(g5
g6
Ntp1868
Rp1869
(dp1870
g10
Vprince
p1871
sg12
VPrince
p1872
sg14
VNNP
p1873
sg16
Nsbag4
(g5
g6
Ntp1874
Rp1875
(dp1876
g10
g60
sg12
g60
sg14
g61
sg16
Nsbasg33
S'whowrote'
p1877
sg35
g36
sa(dp1878
g2
(lp1879
g4
(g5
g6
Ntp1880
Rp1881
(dp1882
g10
Vwho
p1883
sg12
g1883
sg14
VWP
p1884
sg16
Nsbag4
(g5
g6
Ntp1885
Rp1886
(dp1887
g10
Vbe
p1888
sg12
Vis
p1889
sg14
VVBZ
p1890
sg16
Nsbag4
(g5
g6
Ntp1891
Rp1892
(dp1893
g10
Vthe
p1894
sg12
g1894
sg14
VDT
p1895
sg16
Nsbag4
(g5
g6
Ntp1896
Rp1897
(dp1898
g10
Vauthor
p1899
sg12
g1899
sg14
VNN
p1900
sg16
Nsbag4
(g5
g6
Ntp1901
Rp1902
(dp1903
g10
Vof
p1904
sg12
g1904
sg14
VIN
p1905
sg16
Nsbag4
(g5
g6
Ntp1906
Rp1907
(dp1908
g10
Va
p1909
sg12
VA
p1910
sg14
VDT
p1911
sg16
Nsbag4
(g5
g6
Ntp1912
Rp1913
(dp1914
g10
Vgame
p1915
sg12
VGame
p1916
sg14
VNNP
p1917
sg16
Nsbag4
(g5
g6
Ntp1918
Rp1919
(dp1920
g10
Vof
p1921
sg12
VOf
p1922
sg14
VNNP
p1923
sg16
Nsbag4
(g5
g6
Ntp1924
Rp1925
(dp1926
g10
Vthrones
p1927
sg12
VThrones
p1928
sg14
VNNP
p1929
sg16
Nsbag4
(g5
g6
Ntp1930
Rp1931
(dp1932
g10
g60
sg12
g60
sg14
g61
sg16
Nsbasg33
S'whowrote'
p1933
sg35
g36
sa(dp1934
g2
(lp1935
g4
(g5
g6
Ntp1936
Rp1937
(dp1938
g10
Vlist
p1939
sg12
g1939
sg14
VNN
p1940
sg16
Nsbag4
(g5
g6
Ntp1941
Rp1942
(dp1943
g10
Vbook
p1944
sg12
Vbooks
p1945
sg14
VNNS
p1946
sg16
Nsbag4
(g5
g6
Ntp1947
Rp1948
(dp1949
g10
Vby
p1950
sg12
g1950
sg14
VIN
p1951
sg16
Nsbag4
(g5
g6
Ntp1952
Rp1953
(dp1954
g10
Vgeorge
p1955
sg12
VGeorge
p1956
sg14
VNNP
p1957
sg16
Nsbag4
(g5
g6
Ntp1958
Rp1959
(dp1960
g10
Vorwell
p1961
sg12
VOrwell
p1962
sg14
VNNP
p1963
sg16
Nsbasg33
S'booksbyauthor'
p1964
sg35
g36
sa(dp1965
g2
(lp1966
g4
(g5
g6
Ntp1967
Rp1968
(dp1969
g10
Vwhich
p1970
sg12
g1970
sg14
VWDT
p1971
sg16
Nsbag4
(g5
g6
Ntp1972
Rp1973
(dp1974
g10
Vbook
p1975
sg12
Vbooks
p1976
sg14
VNNS
p1977
sg16
Nsbag4
(g5
g6
Ntp1978
Rp1979
(dp1980
g10
Vdo
p1981
sg12
Vdid
p1982
sg14
VVBD
p1983
sg16
Nsbag4
(g5
g6
Ntp1984
Rp1985
(dp1986
g10
Vsuzanne
p1987
sg12
VSuzanne
p1988
sg14
VNNP
p1989
sg16
Nsbag4
(g5
g6
Ntp1990
Rp1991
(dp1992
g10
Vcollins
p1993
sg12
VCollins
p1994
sg14
VNNP
p1995
sg16
Nsbag4
(g5
g6
Ntp1996
Rp1997
(dp1998
g10
Vwrite
p1999
sg12
Vwrote
p2000
sg14
VVBD
p2001
sg16
Nsbag4
(g5
g6
Ntp2002
Rp2003
(dp2004
g10
g60
sg12
g60
sg14
g61
sg16
Nsbasg33
S'booksbyauthor'
p2005
sg35
g36
sa(dp2006
g2
(lp2007
g4
(g5
g6
Ntp2008
Rp2009
(dp2010
g10
Von
p2011
sg12
VOn
p2012
sg14
VIN
p2013
sg16
Nsbag4
(g5
g6
Ntp2014
Rp2015
(dp2016
g10
Vwhat
p2017
sg12
g2017
sg14
VWP
p2018
sg16
Nsbag4
(g5
g6
Ntp2019
Rp2020
(dp2021
g10
Vtv
p2022
sg12
VTV
p2023
sg14
VNN
p2024
sg16
Nsbag4
(g5
g6
Ntp2025
Rp2026
(dp2027
g10
Vshow
p2028
sg12
g2028
sg14
VNN
p2029
sg16
Nsbag4
(g5
g6
Ntp2030
Rp2031
(dp2032
g10
Vdo
p2033
sg12
Vdoes
p2034
sg14
VVBZ
p2035
sg16
Nsbag4
(g5
g6
Ntp2036
Rp2037
(dp2038
g10
Vhammond
p2039
sg12
VHammond
p2040
sg14
VNNP
p2041
sg16
Nsbag4
(g5
g6
Ntp2042
Rp2043
(dp2044
g10
Vregularly
p2045
sg12
g2045
sg14
VRB
p2046
sg16
Nsbag4
(g5
g6
Ntp2047
Rp2048
(dp2049
g10
Vappear
p2050
sg12
g2050
sg14
VJJ
p2051
sg16
Nsbag4
(g5
g6
Ntp2052
Rp2053
(dp2054
g10
g60
sg12
g60
sg14
g61
sg16
Nsbasg33
S'showswith'
p2055
sg35
S'n'
p2056
sa(dp2057
g2
(lp2058
g4
(g5
g6
Ntp2059
Rp2060
(dp2061
g10
Vdefinition
p2062
sg12
g2062
sg14
VNN
p2063
sg16
Nsbag4
(g5
g6
Ntp2064
Rp2065
(dp2066
g10
Vof
p2067
sg12
g2067
sg14
VIN
p2068
sg16
Nsbag4
(g5
g6
Ntp2069
Rp2070
(dp2071
g10
Vcomputer
p2072
sg12
g2072
sg14
VNN
p2073
sg16
Nsbasg33
S'whatis'
p2074
sg35
g2056
sa(dp2075
g2
(lp2076
g4
(g5
g6
Ntp2077
Rp2078
(dp2079
g10
Vwhere
p2080
sg12
g2080
sg14
VWRB
p2081
sg16
Nsbag4
(g5
g6
Ntp2082
Rp2083
(dp2084
g10
Vbe
p2085
sg12
Vis
p2086
sg14
VVBZ
p2087
sg16
Nsbag4
(g5
g6
Ntp2088
Rp2089
(dp2090
g10
Vthe
p2091
sg12
g2091
sg14
VDT
p2092
sg16
Nsbag4
(g5
g6
Ntp2093
Rp2094
(dp2095
g10
Vstatue
p2096
sg12
VStatue
p2097
sg14
VNNP
p2098
sg16
Nsbag4
(g5
g6
Ntp2099
Rp2100
(dp2101
g10
Vof
p2102
sg12
g2102
sg14
VIN
p2103
sg16
Nsbag4
(g5
g6
Ntp2104
Rp2105
(dp2106
g10
Vliberty
p2107
sg12
VLiberty
p2108
sg14
VNNP
p2109
sg16
Nsbasg33
S'whereis'
p2110
sg35
g2056
sa(dp2111
g2
(lp2112
g4
(g5
g6
Ntp2113
Rp2114
(dp2115
g10
Vwho
p2116
sg12
g2116
sg14
VWP
p2117
sg16
Nsbag4
(g5
g6
Ntp2118
Rp2119
(dp2120
g10
Vbe
p2121
sg12
Vare
p2122
sg14
VVBP
p2123
sg16
Nsbag4
(g5
g6
Ntp2124
Rp2125
(dp2126
g10
Vthe
p2127
sg12
g2127
sg14
VDT
p2128
sg16
Nsbag4
(g5
g6
Ntp2129
Rp2130
(dp2131
g10
Vpresident
p2132
sg12
Vpresidents
p2133
sg14
VNNS
p2134
sg16
Nsbag4
(g5
g6
Ntp2135
Rp2136
(dp2137
g10
Vof
p2138
sg12
g2138
sg14
VIN
p2139
sg16
Nsbag4
(g5
g6
Ntp2140
Rp2141
(dp2142
g10
Vbolivia
p2143
sg12
VBolivia
p2144
sg14
VNNP
p2145
sg16
Nsbag4
(g5
g6
Ntp2146
Rp2147
(dp2148
g10
g60
sg12
g60
sg14
g61
sg16
Nsbasg33
S'presidentsof'
p2149
sg35
g2056
sa(dp2150
g2
(lp2151
g4
(g5
g6
Ntp2152
Rp2153
(dp2154
g10
Vwho
p2155
sg12
g2155
sg14
VWP
p2156
sg16
Nsbag4
(g5
g6
Ntp2157
Rp2158
(dp2159
g10
Vhave
p2160
sg12
g2160
sg14
VVBP
p2161
sg16
Nsbag4
(g5
g6
Ntp2162
Rp2163
(dp2164
g10
Vbe
p2165
sg12
Vbeen
p2166
sg14
VVBN
p2167
sg16
Nsbag4
(g5
g6
Ntp2168
Rp2169
(dp2170
g10
Vpresident
p2171
sg12
Vpresidents
p2172
sg14
VNNS
p2173
sg16
Nsbag4
(g5
g6
Ntp2174
Rp2175
(dp2176
g10
Vof
p2177
sg12
g2177
sg14
VIN
p2178
sg16
Nsbag4
(g5
g6
Ntp2179
Rp2180
(dp2181
g10
Vthe
p2182
sg12
g2182
sg14
VDT
p2183
sg16
Nsbag4
(g5
g6
Ntp2184
Rp2185
(dp2186
g10
Vrepublic
p2187
sg12
VRepublic
p2188
sg14
VNNP
p2189
sg16
Nsbag4
(g5
g6
Ntp2190
Rp2191
(dp2192
g10
Vof
p2193
sg12
g2193
sg14
VIN
p2194
sg16
Nsbag4
(g5
g6
Ntp2195
Rp2196
(dp2197
g10
Vegypt
p2198
sg12
VEgypt
p2199
sg14
VNNP
p2200
sg16
Nsbag4
(g5
g6
Ntp2201
Rp2202
(dp2203
g10
g60
sg12
g60
sg14
g61
sg16
Nsbasg33
S'presidentsof'
p2204
sg35
g2056
sa(dp2205
g2
(lp2206
g4
(g5
g6
Ntp2207
Rp2208
(dp2209
g10
Vwho
p2210
sg12
g2210
sg14
VWP
p2211
sg16
Nsbag4
(g5
g6
Ntp2212
Rp2213
(dp2214
g10
Vhave
p2215
sg12
g2215
sg14
VVBP
p2216
sg16
Nsbag4
(g5
g6
Ntp2217
Rp2218
(dp2219
g10
Vbe
p2220
sg12
Vbeen
p2221
sg14
VVBN
p2222
sg16
Nsbag4
(g5
g6
Ntp2223
Rp2224
(dp2225
g10
Vpresident
p2226
sg12
Vpresidents
p2227
sg14
VNNS
p2228
sg16
Nsbag4
(g5
g6
Ntp2229
Rp2230
(dp2231
g10
Vof
p2232
sg12
g2232
sg14
VIN
p2233
sg16
Nsbag4
(g5
g6
Ntp2234
Rp2235
(dp2236
g10
Vthe
p2237
sg12
g2237
sg14
VDT
p2238
sg16
Nsbag4
(g5
g6
Ntp2239
Rp2240
(dp2241
g10
Varab
p2242
sg12
VArab
p2243
sg14
VNNP
p2244
sg16
Nsbag4
(g5
g6
Ntp2245
Rp2246
(dp2247
g10
Vrepublic
p2248
sg12
VRepublic
p2249
sg14
VNNP
p2250
sg16
Nsbag4
(g5
g6
Ntp2251
Rp2252
(dp2253
g10
Vof
p2254
sg12
g2254
sg14
VIN
p2255
sg16
Nsbag4
(g5
g6
Ntp2256
Rp2257
(dp2258
g10
Vegypt
p2259
sg12
VEgypt
p2260
sg14
VNNP
p2261
sg16
Nsbag4
(g5
g6
Ntp2262
Rp2263
(dp2264
g10
g60
sg12
g60
sg14
g61
sg16
Nsbasg33
S'presidentsof'
p2265
sg35
g2056
sa(dp2266
g2
(lp2267
g4
(g5
g6
Ntp2268
Rp2269
(dp2270
g10
Vwho
p2271
sg12
g2271
sg14
VWP
p2272
sg16
Nsbag4
(g5
g6
Ntp2273
Rp2274
(dp2275
g10
Vbe
p2276
sg12
Vare
p2277
sg14
VVBP
p2278
sg16
Nsbag4
(g5
g6
Ntp2279
Rp2280
(dp2281
g10
Vthe
p2282
sg12
g2282
sg14
VDT
p2283
sg16
Nsbag4
(g5
g6
Ntp2284
Rp2285
(dp2286
g10
Vpast
p2287
sg12
g2287
sg14
VJJ
p2288
sg16
Nsbag4
(g5
g6
Ntp2289
Rp2290
(dp2291
g10
Vliders
p2292
sg12
g2292
sg14
VNNS
p2293
sg16
Nsbag4
(g5
g6
Ntp2294
Rp2295
(dp2296
g10
Vof
p2297
sg12
g2297
sg14
VIN
p2298
sg16
Nsbag4
(g5
g6
Ntp2299
Rp2300
(dp2301
g10
Vbrazil
p2302
sg12
VBrazil
p2303
sg14
VNNP
p2304
sg16
Nsbag4
(g5
g6
Ntp2305
Rp2306
(dp2307
g10
g60
sg12
g60
sg14
g61
sg16
Nsbasg33
S'presidentsof'
p2308
sg35
g2056
sa(dp2309
g2
(lp2310
g4
(g5
g6
Ntp2311
Rp2312
(dp2313
g10
Vwhat
p2314
sg12
g2314
sg14
VWP
p2315
sg16
Nsbag4
(g5
g6
Ntp2316
Rp2317
(dp2318
g10
Vbe
p2319
sg12
Vis
p2320
sg14
VVBZ
p2321
sg16
Nsbag4
(g5
g6
Ntp2322
Rp2323
(dp2324
g10
Vthe
p2325
sg12
g2325
sg14
VDT
p2326
sg16
Nsbag4
(g5
g6
Ntp2327
Rp2328
(dp2329
g10
Vcapital
p2330
sg12
g2330
sg14
VNN
p2331
sg16
Nsbag4
(g5
g6
Ntp2332
Rp2333
(dp2334
g10
Vcity
p2335
sg12
g2335
sg14
VNN
p2336
sg16
Nsbag4
(g5
g6
Ntp2337
Rp2338
(dp2339
g10
Vof
p2340
sg12
g2340
sg14
VIN
p2341
sg16
Nsbag4
(g5
g6
Ntp2342
Rp2343
(dp2344
g10
Vthe
p2345
sg12
g2345
sg14
VDT
p2346
sg16
Nsbag4
(g5
g6
Ntp2347
Rp2348
(dp2349
g10
Vunited
p2350
sg12
VUnited
p2351
sg14
VNNP
p2352
sg16
Nsbag4
(g5
g6
Ntp2353
Rp2354
(dp2355
g10
Vkingdom
p2356
sg12
VKingdom
p2357
sg14
VNNP
p2358
sg16
Nsbag4
(g5
g6
Ntp2359
Rp2360
(dp2361
g10
g60
sg12
g60
sg14
g61
sg16
Nsbasg33
S'capitalcityof'
p2362
sg35
g2056
sa(dp2363
g2
(lp2364
g4
(g5
g6
Ntp2365
Rp2366
(dp2367
g10
Vwhat
p2368
sg12
g2368
sg14
VWP
p2369
sg16
Nsbag4
(g5
g6
Ntp2370
Rp2371
(dp2372
g10
Vbe
p2373
sg12
Vis
p2374
sg14
VVBZ
p2375
sg16
Nsbag4
(g5
g6
Ntp2376
Rp2377
(dp2378
g10
Vthe
p2379
sg12
g2379
sg14
VDT
p2380
sg16
Nsbag4
(g5
g6
Ntp2381
Rp2382
(dp2383
g10
Vcapital
p2384
sg12
g2384
sg14
VNN
p2385
sg16
Nsbag4
(g5
g6
Ntp2386
Rp2387
(dp2388
g10
Vof
p2389
sg12
g2389
sg14
VIN
p2390
sg16
Nsbag4
(g5
g6
Ntp2391
Rp2392
(dp2393
g10
Vthe
p2394
sg12
g2394
sg14
VDT
p2395
sg16
Nsbag4
(g5
g6
Ntp2396
Rp2397
(dp2398
g10
Vcountry
p2399
sg12
g2399
sg14
VNN
p2400
sg16
Nsbag4
(g5
g6
Ntp2401
Rp2402
(dp2403
g10
Vgermany
p2404
sg12
VGermany
p2405
sg14
VNNP
p2406
sg16
Nsbag4
(g5
g6
Ntp2407
Rp2408
(dp2409
g10
g60
sg12
g60
sg14
g61
sg16
Nsbasg33
S'capitalcityof'
p2410
sg35
g2056
sa(dp2411
g2
(lp2412
g4
(g5
g6
Ntp2413
Rp2414
(dp2415
g10
Vwhat
p2416
sg12
VWhat
p2417
sg14
VWP
p2418
sg16
Nsbag4
(g5
g6
Ntp2419
Rp2420
(dp2421
g10
Vbe
p2422
sg12
Vis
p2423
sg14
VVBZ
p2424
sg16
Nsbag4
(g5
g6
Ntp2425
Rp2426
(dp2427
g10
Vthe
p2428
sg12
g2428
sg14
VDT
p2429
sg16
Nsbag4
(g5
g6
Ntp2430
Rp2431
(dp2432
g10
Vmain
p2433
sg12
g2433
sg14
VJJ
p2434
sg16
Nsbag4
(g5
g6
Ntp2435
Rp2436
(dp2437
g10
Vspoken
p2438
sg12
g2438
sg14
VNN
p2439
sg16
Nsbag4
(g5
g6
Ntp2440
Rp2441
(dp2442
g10
Vlanguage
p2443
sg12
g2443
sg14
VNN
p2444
sg16
Nsbag4
(g5
g6
Ntp2445
Rp2446
(dp2447
g10
Vin
p2448
sg12
g2448
sg14
VIN
p2449
sg16
Nsbag4
(g5
g6
Ntp2450
Rp2451
(dp2452
g10
Vpoland
p2453
sg12
VPoland
p2454
sg14
VNNP
p2455
sg16
Nsbag4
(g5
g6
Ntp2456
Rp2457
(dp2458
g10
g60
sg12
g60
sg14
g61
sg16
Nsbasg33
S'spokenlanguageof'
p2459
sg35
g2056
sa(dp2460
g2
(lp2461
g4
(g5
g6
Ntp2462
Rp2463
(dp2464
g10
Vwhat
p2465
sg12
g2465
sg14
VWP
p2466
sg16
Nsbag4
(g5
g6
Ntp2467
Rp2468
(dp2469
g10
Vbe
p2470
sg12
Vis
p2471
sg14
VVBZ
p2472
sg16
Nsbag4
(g5
g6
Ntp2473
Rp2474
(dp2475
g10
Vthe
p2476
sg12
g2476
sg14
VDT
p2477
sg16
Nsbag4
(g5
g6
Ntp2478
Rp2479
(dp2480
g10
Vmain
p2481
sg12
g2481
sg14
VJJ
p2482
sg16
Nsbag4
(g5
g6
Ntp2483
Rp2484
(dp2485
g10
Vlanguage
p2486
sg12
g2486
sg14
VNN
p2487
sg16
Nsbag4
(g5
g6
Ntp2488
Rp2489
(dp2490
g10
Vin
p2491
sg12
g2491
sg14
VIN
p2492
sg16
Nsbag4
(g5
g6
Ntp2493
Rp2494
(dp2495
g10
Vth
p2496
sg12
g2496
sg14
VNN
p2497
sg16
Nsbag4
(g5
g6
Ntp2498
Rp2499
(dp2500
g10
Vrepublic
p2501
sg12
g2501
sg14
VJJ
p2502
sg16
Nsbag4
(g5
g6
Ntp2503
Rp2504
(dp2505
g10
Vof
p2506
sg12
g2506
sg14
VIN
p2507
sg16
Nsbag4
(g5
g6
Ntp2508
Rp2509
(dp2510
g10
Vargentina
p2511
sg12
VArgentina
p2512
sg14
VNNP
p2513
sg16
Nsbag4
(g5
g6
Ntp2514
Rp2515
(dp2516
g10
g60
sg12
g60
sg14
g61
sg16
Nsbasg33
S'spokenlanguageof'
p2517
sg35
g2056
sa(dp2518
g2
(lp2519
g4
(g5
g6
Ntp2520
Rp2521
(dp2522
g10
Vhow
p2523
sg12
g2523
sg14
VWRB
p2524
sg16
Nsbag4
(g5
g6
Ntp2525
Rp2526
(dp2527
g10
Vmany
p2528
sg12
g2528
sg14
VJJ
p2529
sg16
Nsbag4
(g5
g6
Ntp2530
Rp2531
(dp2532
g10
Vpeople
p2533
sg12
g2533
sg14
VNNS
p2534
sg16
Nsbag4
(g5
g6
Ntp2535
Rp2536
(dp2537
g10
Vbe
p2538
sg12
Vis
p2539
sg14
VVBZ
p2540
sg16
Nsbag4
(g5
g6
Ntp2541
Rp2542
(dp2543
g10
Vin
p2544
sg12
g2544
sg14
VIN
p2545
sg16
Nsbag4
(g5
g6
Ntp2546
Rp2547
(dp2548
g10
Vparaguay
p2549
sg12
VParaguay
p2550
sg14
VNNP
p2551
sg16
Nsbag4
(g5
g6
Ntp2552
Rp2553
(dp2554
g10
g60
sg12
g60
sg14
g61
sg16
Nsbasg33
S'populationof'
p2555
sg35
g2056
sa(dp2556
g2
(lp2557
g4
(g5
g6
Ntp2558
Rp2559
(dp2560
g10
Vhow
p2561
sg12
g2561
sg14
VWRB
p2562
sg16
Nsbag4
(g5
g6
Ntp2563
Rp2564
(dp2565
g10
Vmany
p2566
sg12
g2566
sg14
VJJ
p2567
sg16
Nsbag4
(g5
g6
Ntp2568
Rp2569
(dp2570
g10
Vpeople
p2571
sg12
g2571
sg14
VNNS
p2572
sg16
Nsbag4
(g5
g6
Ntp2573
Rp2574
(dp2575
g10
Vthere
p2576
sg12
g2576
sg14
VEX
p2577
sg16
Nsbag4
(g5
g6
Ntp2578
Rp2579
(dp2580
g10
Vbe
p2581
sg12
Vis
p2582
sg14
VVBZ
p2583
sg16
Nsbag4
(g5
g6
Ntp2584
Rp2585
(dp2586
g10
Vin
p2587
sg12
g2587
sg14
VIN
p2588
sg16
Nsbag4
(g5
g6
Ntp2589
Rp2590
(dp2591
g10
Vthe
p2592
sg12
g2592
sg14
VDT
p2593
sg16
Nsbag4
(g5
g6
Ntp2594
Rp2595
(dp2596
g10
Vpeople
p2597
sg12
VPeople
p2598
sg14
VNNP
p2599
sg16
Nsbag4
(g5
g6
Ntp2600
Rp2601
(dp2602
g10
V'
p2603
sg12
g2603
sg14
VPOS
p2604
sg16
Nsbag4
(g5
g6
Ntp2605
Rp2606
(dp2607
g10
Vs
p2608
sg12
g2608
sg14
VNNS
p2609
sg16
Nsbag4
(g5
g6
Ntp2610
Rp2611
(dp2612
g10
Vrepublic
p2613
sg12
VRepublic
p2614
sg14
VNNP
p2615
sg16
Nsbag4
(g5
g6
Ntp2616
Rp2617
(dp2618
g10
Vof
p2619
sg12
g2619
sg14
VIN
p2620
sg16
Nsbag4
(g5
g6
Ntp2621
Rp2622
(dp2623
g10
Vchina
p2624
sg12
VChina
p2625
sg14
VNNP
p2626
sg16
Nsbag4
(g5
g6
Ntp2627
Rp2628
(dp2629
g10
g60
sg12
g60
sg14
g61
sg16
Nsbasg33
S'populationof'
p2630
sg35
g2056
sa(dp2631
g2
(lp2632
g4
(g5
g6
Ntp2633
Rp2634
(dp2635
g10
Vwhat
p2636
sg12
g2636
sg14
VWP
p2637
sg16
Nsbag4
(g5
g6
Ntp2638
Rp2639
(dp2640
g10
Vmovie
p2641
sg12
Vmovies
p2642
sg14
VNNS
p2643
sg16
Nsbag4
(g5
g6
Ntp2644
Rp2645
(dp2646
g10
Vthere
p2647
sg12
g2647
sg14
VRB
p2648
sg16
Nsbag4
(g5
g6
Ntp2649
Rp2650
(dp2651
g10
Vbe
p2652
sg12
Vare
p2653
sg14
VVBP
p2654
sg16
Nsbag4
(g5
g6
Ntp2655
Rp2656
(dp2657
g10
g60
sg12
g60
sg14
g61
sg16
Nsbasg33
S'listmovies'
p2658
sg35
g2056
sa(dp2659
g2
(lp2660
g4
(g5
g6
Ntp2661
Rp2662
(dp2663
g10
Vsteven
p2664
sg12
g2664
sg14
VRB
p2665
sg16
Nsbag4
(g5
g6
Ntp2666
Rp2667
(dp2668
g10
Vspielberg
p2669
sg12
g2669
sg14
VVBP
p2670
sg16
Nsbag4
(g5
g6
Ntp2671
Rp2672
(dp2673
g10
Vbe
p2674
sg12
Vwas
p2675
sg14
VVBD
p2676
sg16
Nsbag4
(g5
g6
Ntp2677
Rp2678
(dp2679
g10
Vthe
p2680
sg12
g2680
sg14
VDT
p2681
sg16
Nsbag4
(g5
g6
Ntp2682
Rp2683
(dp2684
g10
Vdirector
p2685
sg12
g2685
sg14
VNN
p2686
sg16
Nsbag4
(g5
g6
Ntp2687
Rp2688
(dp2689
g10
Vof
p2690
sg12
g2690
sg14
VIN
p2691
sg16
Nsbag4
(g5
g6
Ntp2692
Rp2693
(dp2694
g10
Vwhat
p2695
sg12
g2695
sg14
VWP
p2696
sg16
Nsbag4
(g5
g6
Ntp2697
Rp2698
(dp2699
g10
Vmovie
p2700
sg12
Vmovies
p2701
sg14
VNNS
p2702
sg16
Nsbag4
(g5
g6
Ntp2703
Rp2704
(dp2705
g10
g60
sg12
g60
sg14
g61
sg16
Nsbasg33
S'moviesbydirector'
p2706
sg35
g2056
sa(dp2707
g2
(lp2708
g4
(g5
g6
Ntp2709
Rp2710
(dp2711
g10
Vhow
p2712
sg12
g2712
sg14
VWRB
p2713
sg16
Nsbag4
(g5
g6
Ntp2714
Rp2715
(dp2716
g10
Vmany
p2717
sg12
g2717
sg14
VJJ
p2718
sg16
Nsbag4
(g5
g6
Ntp2719
Rp2720
(dp2721
g10
Vminutes
p2722
sg12
g2722
sg14
VNNS
p2723
sg16
Nsbag4
(g5
g6
Ntp2724
Rp2725
(dp2726
g10
Vlong
p2727
sg12
g2727
sg14
VRB
p2728
sg16
Nsbag4
(g5
g6
Ntp2729
Rp2730
(dp2731
g10
Vbe
p2732
sg12
Vis
p2733
sg14
VVBZ
p2734
sg16
Nsbag4
(g5
g6
Ntp2735
Rp2736
(dp2737
g10
Vthe
p2738
sg12
g2738
sg14
VDT
p2739
sg16
Nsbag4
(g5
g6
Ntp2740
Rp2741
(dp2742
g10
Vlord
p2743
sg12
g2743
sg14
VNN
p2744
sg16
Nsbag4
(g5
g6
Ntp2745
Rp2746
(dp2747
g10
Vof
p2748
sg12
g2748
sg14
VIN
p2749
sg16
Nsbag4
(g5
g6
Ntp2750
Rp2751
(dp2752
g10
Vthe
p2753
sg12
g2753
sg14
VDT
p2754
sg16
Nsbag4
(g5
g6
Ntp2755
Rp2756
(dp2757
g10
Vrings
p2758
sg12
g2758
sg14
VNNS
p2759
sg16
Nsbag4
(g5
g6
Ntp2760
Rp2761
(dp2762
g10
g60
sg12
g60
sg14
g61
sg16
Nsbasg33
S'movieduration'
p2763
sg35
g2056
sa(dp2764
g2
(lp2765
g4
(g5
g6
Ntp2766
Rp2767
(dp2768
g10
Vwhen
p2769
sg12
g2769
sg14
VWRB
p2770
sg16
Nsbag4
(g5
g6
Ntp2771
Rp2772
(dp2773
g10
Vbe
p2774
sg12
Vwas
p2775
sg14
VVBD
p2776
sg16
Nsbag4
(g5
g6
Ntp2777
Rp2778
(dp2779
g10
Vharry
p2780
sg12
VHarry
p2781
sg14
VNNP
p2782
sg16
Nsbag4
(g5
g6
Ntp2783
Rp2784
(dp2785
g10
Vpotter
p2786
sg12
VPotter
p2787
sg14
VNNP
p2788
sg16
Nsbag4
(g5
g6
Ntp2789
Rp2790
(dp2791
g10
Vthe
p2792
sg12
g2792
sg14
VDT
p2793
sg16
Nsbag4
(g5
g6
Ntp2794
Rp2795
(dp2796
g10
Vmovie
p2797
sg12
g2797
sg14
VNN
p2798
sg16
Nsbag4
(g5
g6
Ntp2799
Rp2800
(dp2801
g10
Vrelease
p2802
sg12
Vreleased
p2803
sg14
VVBD
p2804
sg16
Nsbag4
(g5
g6
Ntp2805
Rp2806
(dp2807
g10
g60
sg12
g60
sg14
g61
sg16
Nsbasg33
S'moviereleasedate'
p2808
sg35
g2056
sa(dp2809
g2
(lp2810
g4
(g5
g6
Ntp2811
Rp2812
(dp2813
g10
Vwhat
p2814
sg12
g2814
sg14
VWP
p2815
sg16
Nsbag4
(g5
g6
Ntp2816
Rp2817
(dp2818
g10
Vactor
p2819
sg12
Vactors
p2820
sg14
VNNS
p2821
sg16
Nsbag4
(g5
g6
Ntp2822
Rp2823
(dp2824
g10
Vwork
p2825
sg12
Vworked
p2826
sg14
VVBD
p2827
sg16
Nsbag4
(g5
g6
Ntp2828
Rp2829
(dp2830
g10
Von
p2831
sg12
g2831
sg14
VIN
p2832
sg16
Nsbag4
(g5
g6
Ntp2833
Rp2834
(dp2835
g10
Vthe
p2836
sg12
g2836
sg14
VDT
p2837
sg16
Nsbag4
(g5
g6
Ntp2838
Rp2839
(dp2840
g10
Vmatrix
p2841
sg12
g2841
sg14
VNN
p2842
sg16
Nsbag4
(g5
g6
Ntp2843
Rp2844
(dp2845
g10
g60
sg12
g60
sg14
g61
sg16
Nsbasg33
S'actedon'
p2846
sg35
g2056
sa(dp2847
g2
(lp2848
g4
(g5
g6
Ntp2849
Rp2850
(dp2851
g10
Vactor
p2852
sg12
Vactors
p2853
sg14
VNNS
p2854
sg16
Nsbag4
(g5
g6
Ntp2855
Rp2856
(dp2857
g10
Vof
p2858
sg12
g2858
sg14
VIN
p2859
sg16
Nsbag4
(g5
g6
Ntp2860
Rp2861
(dp2862
g10
Vmemoirs
p2863
sg12
VMemoirs
p2864
sg14
VNNP
p2865
sg16
Nsbag4
(g5
g6
Ntp2866
Rp2867
(dp2868
g10
Vof
p2869
sg12
g2869
sg14
VIN
p2870
sg16
Nsbag4
(g5
g6
Ntp2871
Rp2872
(dp2873
g10
g26
sg12
g26
sg14
VDT
p2874
sg16
Nsbag4
(g5
g6
Ntp2875
Rp2876
(dp2877
g10
Vgeisha
p2878
sg12
VGeisha
p2879
sg14
VNNP
p2880
sg16
Nsbasg33
S'actedon'
p2881
sg35
g2056
sa(dp2882
g2
(lp2883
g4
(g5
g6
Ntp2884
Rp2885
(dp2886
g10
Vactor
p2887
sg12
Vactors
p2888
sg14
VNNS
p2889
sg16
Nsbag4
(g5
g6
Ntp2890
Rp2891
(dp2892
g10
Vthat
p2893
sg12
g2893
sg14
VIN
p2894
sg16
Nsbag4
(g5
g6
Ntp2895
Rp2896
(dp2897
g10
Vworked
p2898
sg12
g2898
sg14
VJJ
p2899
sg16
Nsbag4
(g5
g6
Ntp2900
Rp2901
(dp2902
g10
Vin
p2903
sg12
g2903
sg14
VIN
p2904
sg16
Nsbag4
(g5
g6
Ntp2905
Rp2906
(dp2907
g10
Vthe
p2908
sg12
g2908
sg14
VDT
p2909
sg16
Nsbag4
(g5
g6
Ntp2910
Rp2911
(dp2912
g10
Vmovie
p2913
sg12
g2913
sg14
VNN
p2914
sg16
Nsbag4
(g5
g6
Ntp2915
Rp2916
(dp2917
g10
Vmatrix
p2918
sg12
VMatrix
p2919
sg14
VNNP
p2920
sg16
Nsbag4
(g5
g6
Ntp2921
Rp2922
(dp2923
g10
g60
sg12
g60
sg14
g61
sg16
Nsbasg33
S'actedon'
p2924
sg35
g2056
sa(dp2925
g2
(lp2926
g4
(g5
g6
Ntp2927
Rp2928
(dp2929
g10
Vlist
p2930
sg12
g2930
sg14
VNN
p2931
sg16
Nsbag4
(g5
g6
Ntp2932
Rp2933
(dp2934
g10
Vthe
p2935
sg12
g2935
sg14
VDT
p2936
sg16
Nsbag4
(g5
g6
Ntp2937
Rp2938
(dp2939
g10
Vactor
p2940
sg12
Vactors
p2941
sg14
VNNS
p2942
sg16
Nsbag4
(g5
g6
Ntp2943
Rp2944
(dp2945
g10
Vthat
p2946
sg12
g2946
sg14
VWDT
p2947
sg16
Nsbag4
(g5
g6
Ntp2948
Rp2949
(dp2950
g10
Vwork
p2951
sg12
Vworked
p2952
sg14
VVBD
p2953
sg16
Nsbag4
(g5
g6
Ntp2954
Rp2955
(dp2956
g10
Vin
p2957
sg12
g2957
sg14
VIN
p2958
sg16
Nsbag4
(g5
g6
Ntp2959
Rp2960
(dp2961
g10
Valice
p2962
sg12
VAlice
p2963
sg14
VNNP
p2964
sg16
Nsbag4
(g5
g6
Ntp2965
Rp2966
(dp2967
g10
Vin
p2968
sg12
g2968
sg14
VIN
p2969
sg16
Nsbag4
(g5
g6
Ntp2970
Rp2971
(dp2972
g10
Vwonderland
p2973
sg12
VWonderland
p2974
sg14
VNNP
p2975
sg16
Nsbasg33
S'actedon'
p2976
sg35
g2056
sa(dp2977
g2
(lp2978
g4
(g5
g6
Ntp2979
Rp2980
(dp2981
g10
Vlist
p2982
sg12
g2982
sg14
VNN
p2983
sg16
Nsbag4
(g5
g6
Ntp2984
Rp2985
(dp2986
g10
Vactor
p2987
sg12
Vactors
p2988
sg14
VNNS
p2989
sg16
Nsbag4
(g5
g6
Ntp2990
Rp2991
(dp2992
g10
Vstar
p2993
sg12
Vstarring
p2994
sg14
VVBG
p2995
sg16
Nsbag4
(g5
g6
Ntp2996
Rp2997
(dp2998
g10
Vin
p2999
sg12
g2999
sg14
VIN
p3000
sg16
Nsbag4
(g5
g6
Ntp3001
Rp3002
(dp3003
g10
Vthe
p3004
sg12
g3004
sg14
VDT
p3005
sg16
Nsbag4
(g5
g6
Ntp3006
Rp3007
(dp3008
g10
Vmovie
p3009
sg12
g3009
sg14
VNN
p3010
sg16
Nsbag4
(g5
g6
Ntp3011
Rp3012
(dp3013
g10
Vthe
p3014
sg12
VThe
p3015
sg14
VDT
p3016
sg16
Nsbag4
(g5
g6
Ntp3017
Rp3018
(dp3019
g10
Vnightmare
p3020
sg12
VNightmare
p3021
sg14
VNNP
p3022
sg16
Nsbag4
(g5
g6
Ntp3023
Rp3024
(dp3025
g10
Vbefore
p3026
sg12
VBefore
p3027
sg14
VNNP
p3028
sg16
Nsbag4
(g5
g6
Ntp3029
Rp3030
(dp3031
g10
Vchristmas
p3032
sg12
VChristmas
p3033
sg14
VNNP
p3034
sg16
Nsbasg33
S'actedon'
p3035
sg35
g2056
sa(dp3036
g2
(lp3037
g4
(g5
g6
Ntp3038
Rp3039
(dp3040
g10
Vplot
p3041
sg12
g3041
sg14
VNN
p3042
sg16
Nsbag4
(g5
g6
Ntp3043
Rp3044
(dp3045
g10
Vof
p3046
sg12
g3046
sg14
VIN
p3047
sg16
Nsbag4
(g5
g6
Ntp3048
Rp3049
(dp3050
g10
Vfrozen
p3051
sg12
VFrozen
p3052
sg14
VNNP
p3053
sg16
Nsbag4
(g5
g6
Ntp3054
Rp3055
(dp3056
g10
g60
sg12
g60
sg14
g61
sg16
Nsbasg33
S'plotof'
p3057
sg35
g2056
sa(dp3058
g2
(lp3059
g4
(g5
g6
Ntp3060
Rp3061
(dp3062
g10
Vwhat
p3063
sg12
g3063
sg14
VWP
p3064
sg16
Nsbag4
(g5
g6
Ntp3065
Rp3066
(dp3067
g10
Vbe
p3068
sg12
Vis
p3069
sg14
VVBZ
p3070
sg16
Nsbag4
(g5
g6
Ntp3071
Rp3072
(dp3073
g10
Vthe
p3074
sg12
g3074
sg14
VDT
p3075
sg16
Nsbag4
(g5
g6
Ntp3076
Rp3077
(dp3078
g10
Vhitchhiker
p3079
sg12
g3079
sg14
VNN
p3080
sg16
Nsbag4
(g5
g6
Ntp3081
Rp3082
(dp3083
g10
g2603
sg12
g2603
sg14
VPOS
p3084
sg16
Nsbag4
(g5
g6
Ntp3085
Rp3086
(dp3087
g10
g2608
sg12
g2608
sg14
VNNS
p3088
sg16
Nsbag4
(g5
g6
Ntp3089
Rp3090
(dp3091
g10
Vguide
p3092
sg12
g3092
sg14
VVBP
p3093
sg16
Nsbag4
(g5
g6
Ntp3094
Rp3095
(dp3096
g10
Vto
p3097
sg12
g3097
sg14
VTO
p3098
sg16
Nsbag4
(g5
g6
Ntp3099
Rp3100
(dp3101
g10
Vthe
p3102
sg12
g3102
sg14
VDT
p3103
sg16
Nsbag4
(g5
g6
Ntp3104
Rp3105
(dp3106
g10
Vgalaxy
p3107
sg12
g3107
sg14
VNN
p3108
sg16
Nsbag4
(g5
g6
Ntp3109
Rp3110
(dp3111
g10
Vabout
p3112
sg12
g3112
sg14
VIN
p3113
sg16
Nsbag4
(g5
g6
Ntp3114
Rp3115
(dp3116
g10
g60
sg12
g60
sg14
g61
sg16
Nsbasg33
S'plotof'
p3117
sg35
g2056
sa(dp3118
g2
(lp3119
g4
(g5
g6
Ntp3120
Rp3121
(dp3122
g10
Vwhen
p3123
sg12
VWhen
p3124
sg14
VWRB
p3125
sg16
Nsbag4
(g5
g6
Ntp3126
Rp3127
(dp3128
g10
Vbe
p3129
sg12
Vwas
p3130
sg14
VVBD
p3131
sg16
Nsbag4
(g5
g6
Ntp3132
Rp3133
(dp3134
g10
Vthe
p3135
sg12
g3135
sg14
VDT
p3136
sg16
Nsbag4
(g5
g6
Ntp3137
Rp3138
(dp3139
g10
Vred
p3140
sg12
VRed
p3141
sg14
VNNP
p3142
sg16
Nsbag4
(g5
g6
Ntp3143
Rp3144
(dp3145
g10
Vhot
p3146
sg12
VHot
p3147
sg14
VNNP
p3148
sg16
Nsbag4
(g5
g6
Ntp3149
Rp3150
(dp3151
g10
Vchili
p3152
sg12
VChili
p3153
sg14
VNNP
p3154
sg16
Nsbag4
(g5
g6
Ntp3155
Rp3156
(dp3157
g10
Vpeppers
p3158
sg12
VPeppers
p3159
sg14
VNNP
p3160
sg16
Nsbag4
(g5
g6
Ntp3161
Rp3162
(dp3163
g10
Vfound
p3164
sg12
Vfounded
p3165
sg14
VVBD
p3166
sg16
Nsbag4
(g5
g6
Ntp3167
Rp3168
(dp3169
g10
g60
sg12
g60
sg14
g61
sg16
Nsbasg33
S'bandfoundation'
p3170
sg35
g2056
sa(dp3171
g2
(lp3172
g4
(g5
g6
Ntp3173
Rp3174
(dp3175
g10
Vwhen
p3176
sg12
g3176
sg14
VWRB
p3177
sg16
Nsbag4
(g5
g6
Ntp3178
Rp3179
(dp3180
g10
Vbe
p3181
sg12
Vwas
p3182
sg14
VVBD
p3183
sg16
Nsbag4
(g5
g6
Ntp3184
Rp3185
(dp3186
g10
Vthe
p3187
sg12
g3187
sg14
VDT
p3188
sg16
Nsbag4
(g5
g6
Ntp3189
Rp3190
(dp3191
g10
Vrolling
p3192
sg12
VRolling
p3193
sg14
VNNP
p3194
sg16
Nsbag4
(g5
g6
Ntp3195
Rp3196
(dp3197
g10
Vstones
p3198
sg12
VStones
p3199
sg14
VNNP
p3200
sg16
Nsbag4
(g5
g6
Ntp3201
Rp3202
(dp3203
g10
Vborn
p3204
sg12
g3204
sg14
VNN
p3205
sg16
Nsbag4
(g5
g6
Ntp3206
Rp3207
(dp3208
g10
g60
sg12
g60
sg14
g61
sg16
Nsbasg33
S'bandfoundation'
p3209
sg35
g2056
sa(dp3210
g2
(lp3211
g4
(g5
g6
Ntp3212
Rp3213
(dp3214
g10
Vwhen
p3215
sg12
g3215
sg14
VWRB
p3216
sg16
Nsbag4
(g5
g6
Ntp3217
Rp3218
(dp3219
g10
Vdo
p3220
sg12
Vdid
p3221
sg14
VVBD
p3222
sg16
Nsbag4
(g5
g6
Ntp3223
Rp3224
(dp3225
g10
Vmy
p3226
sg12
VMy
p3227
sg14
VNNP
p3228
sg16
Nsbag4
(g5
g6
Ntp3229
Rp3230
(dp3231
g10
Vchemical
p3232
sg12
VChemical
p3233
sg14
VNNP
p3234
sg16
Nsbag4
(g5
g6
Ntp3235
Rp3236
(dp3237
g10
Vromance
p3238
sg12
VRomance
p3239
sg14
VNNP
p3240
sg16
Nsbag4
(g5
g6
Ntp3241
Rp3242
(dp3243
g10
Vstart
p3244
sg12
g3244
sg14
VNN
p3245
sg16
Nsbag4
(g5
g6
Ntp3246
Rp3247
(dp3248
g10
Vto
p3249
sg12
g3249
sg14
VTO
p3250
sg16
Nsbag4
(g5
g6
Ntp3251
Rp3252
(dp3253
g10
Vperform
p3254
sg12
g3254
sg14
VVB
p3255
sg16
Nsbag4
(g5
g6
Ntp3256
Rp3257
(dp3258
g10
g60
sg12
g60
sg14
g61
sg16
Nsbasg33
S'bandfoundation'
p3259
sg35
g2056
sa(dp3260
g2
(lp3261
g4
(g5
g6
Ntp3262
Rp3263
(dp3264
g10
Vin
p3265
sg12
g3265
sg14
VIN
p3266
sg16
Nsbag4
(g5
g6
Ntp3267
Rp3268
(dp3269
g10
Vwhat
p3270
sg12
g3270
sg14
VWP
p3271
sg16
Nsbag4
(g5
g6
Ntp3272
Rp3273
(dp3274
g10
Vyear
p3275
sg12
g3275
sg14
VNN
p3276
sg16
Nsbag4
(g5
g6
Ntp3277
Rp3278
(dp3279
g10
Vdo
p3280
sg12
Vdid
p3281
sg14
VVBD
p3282
sg16
Nsbag4
(g5
g6
Ntp3283
Rp3284
(dp3285
g10
Vthe
p3286
sg12
g3286
sg14
VDT
p3287
sg16
Nsbag4
(g5
g6
Ntp3288
Rp3289
(dp3290
g10
Vsex
p3291
sg12
VSex
p3292
sg14
VNNP
p3293
sg16
Nsbag4
(g5
g6
Ntp3294
Rp3295
(dp3296
g10
Vpistils
p3297
sg12
VPistils
p3298
sg14
VNNP
p3299
sg16
Nsbag4
(g5
g6
Ntp3300
Rp3301
(dp3302
g10
Vstart
p3303
sg12
g3303
sg14
VNN
p3304
sg16
Nsbag4
(g5
g6
Ntp3305
Rp3306
(dp3307
g10
Vto
p3308
sg12
g3308
sg14
VTO
p3309
sg16
Nsbag4
(g5
g6
Ntp3310
Rp3311
(dp3312
g10
Vmake
p3313
sg12
g3313
sg14
VVB
p3314
sg16
Nsbag4
(g5
g6
Ntp3315
Rp3316
(dp3317
g10
Vrecital
p3318
sg12
Vrecitals
p3319
sg14
VNNS
p3320
sg16
Nsbag4
(g5
g6
Ntp3321
Rp3322
(dp3323
g10
g60
sg12
g60
sg14
g61
sg16
Nsbasg33
S'bandfoundation'
p3324
sg35
g2056
sa(dp3325
g2
(lp3326
g4
(g5
g6
Ntp3327
Rp3328
(dp3329
g10
Vwhat
p3330
sg12
g3330
sg14
VWP
p3331
sg16
Nsbag4
(g5
g6
Ntp3332
Rp3333
(dp3334
g10
Vtype
p3335
sg12
g3335
sg14
VNN
p3336
sg16
Nsbag4
(g5
g6
Ntp3337
Rp3338
(dp3339
g10
Vof
p3340
sg12
g3340
sg14
VIN
p3341
sg16
Nsbag4
(g5
g6
Ntp3342
Rp3343
(dp3344
g10
Vmusic
p3345
sg12
g3345
sg14
VJJ
p3346
sg16
Nsbag4
(g5
g6
Ntp3347
Rp3348
(dp3349
g10
Vdo
p3350
sg12
Vdoes
p3351
sg14
VVBZ
p3352
sg16
Nsbag4
(g5
g6
Ntp3353
Rp3354
(dp3355
g10
Vac
p3356
sg12
VAC
p3357
sg14
VNNP
p3358
sg16
Nsbag4
(g5
g6
Ntp3359
Rp3360
(dp3361
g10
Vdc
p3362
sg12
VDC
p3363
sg14
VNNP
p3364
sg16
Nsbag4
(g5
g6
Ntp3365
Rp3366
(dp3367
g10
g60
sg12
g60
sg14
g61
sg16
Nsbasg33
S'musicgenre'
p3368
sg35
g2056
sa(dp3369
g2
(lp3370
g4
(g5
g6
Ntp3371
Rp3372
(dp3373
g10
Vwhat
p3374
sg12
g3374
sg14
VWP
p3375
sg16
Nsbag4
(g5
g6
Ntp3376
Rp3377
(dp3378
g10
Vtype
p3379
sg12
g3379
sg14
VNN
p3380
sg16
Nsbag4
(g5
g6
Ntp3381
Rp3382
(dp3383
g10
Vof
p3384
sg12
g3384
sg14
VIN
p3385
sg16
Nsbag4
(g5
g6
Ntp3386
Rp3387
(dp3388
g10
Vsong
p3389
sg12
Vsongs
p3390
sg14
VNNS
p3391
sg16
Nsbag4
(g5
g6
Ntp3392
Rp3393
(dp3394
g10
Vdo
p3395
sg12
Vdoes
p3396
sg14
VVBZ
p3397
sg16
Nsbag4
(g5
g6
Ntp3398
Rp3399
(dp3400
g10
Vthe
p3401
sg12
g3401
sg14
VDT
p3402
sg16
Nsbag4
(g5
g6
Ntp3403
Rp3404
(dp3405
g10
Vrolling
p3406
sg12
VRolling
p3407
sg14
VNNP
p3408
sg16
Nsbag4
(g5
g6
Ntp3409
Rp3410
(dp3411
g10
Vstones
p3412
sg12
VStones
p3413
sg14
VNNP
p3414
sg16
Nsbag4
(g5
g6
Ntp3415
Rp3416
(dp3417
g10
g60
sg12
g60
sg14
g61
sg16
Nsbasg33
S'musicgenre'
p3418
sg35
g2056
sa(dp3419
g2
(lp3420
g4
(g5
g6
Ntp3421
Rp3422
(dp3423
g10
Vwhat
p3424
sg12
g3424
sg14
VWP
p3425
sg16
Nsbag4
(g5
g6
Ntp3426
Rp3427
(dp3428
g10
Vworks
p3429
sg12
g3429
sg14
VNNS
p3430
sg16
Nsbag4
(g5
g6
Ntp3431
Rp3432
(dp3433
g10
Vdo
p3434
sg12
Vdid
p3435
sg14
VVBD
p3436
sg16
Nsbag4
(g5
g6
Ntp3437
Rp3438
(dp3439
g10
Vthe
p3440
sg12
g3440
sg14
VDT
p3441
sg16
Nsbag4
(g5
g6
Ntp3442
Rp3443
(dp3444
g10
Vbeatles
p3445
sg12
VBeatles
p3446
sg14
VNNP
p3447
sg16
Nsbag4
(g5
g6
Ntp3448
Rp3449
(dp3450
g10
Vdo
p3451
sg12
g3451
sg14
VVBP
p3452
sg16
Nsbag4
(g5
g6
Ntp3453
Rp3454
(dp3455
g10
g60
sg12
g60
sg14
g61
sg16
Nsbasg33
S'albumsofband'
p3456
sg35
g2056
sa(dp3457
g2
(lp3458
g4
(g5
g6
Ntp3459
Rp3460
(dp3461
g10
Vwhich
p3462
sg12
g3462
sg14
VWDT
p3463
sg16
Nsbag4
(g5
g6
Ntp3464
Rp3465
(dp3466
g10
Vworks
p3467
sg12
g3467
sg14
VNNS
p3468
sg16
Nsbag4
(g5
g6
Ntp3469
Rp3470
(dp3471
g10
Vdo
p3472
sg12
Vdid
p3473
sg14
VVBD
p3474
sg16
Nsbag4
(g5
g6
Ntp3475
Rp3476
(dp3477
g10
Vlinkin
p3478
sg12
VLinkin
p3479
sg14
VNNP
p3480
sg16
Nsbag4
(g5
g6
Ntp3481
Rp3482
(dp3483
g10
Vpark
p3484
sg12
VPark
p3485
sg14
VNNP
p3486
sg16
Nsbag4
(g5
g6
Ntp3487
Rp3488
(dp3489
g10
Vmake
p3490
sg12
g3490
sg14
VVBP
p3491
sg16
Nsbag4
(g5
g6
Ntp3492
Rp3493
(dp3494
g10
g60
sg12
g60
sg14
g61
sg16
Nsbasg33
S'albumsofband'
p3495
sg35
g2056
sa(dp3496
g2
(lp3497
g4
(g5
g6
Ntp3498
Rp3499
(dp3500
g10
Valbum
p3501
sg12
Valbums
p3502
sg14
VNNS
p3503
sg16
Nsbag4
(g5
g6
Ntp3504
Rp3505
(dp3506
g10
Vrecord
p3507
sg12
Vrecorded
p3508
sg14
VVBD
p3509
sg16
Nsbag4
(g5
g6
Ntp3510
Rp3511
(dp3512
g10
Vby
p3513
sg12
g3513
sg14
VIN
p3514
sg16
Nsbag4
(g5
g6
Ntp3515
Rp3516
(dp3517
g10
Vthe
p3518
sg12
g3518
sg14
VDT
p3519
sg16
Nsbag4
(g5
g6
Ntp3520
Rp3521
(dp3522
g10
Vguns
p3523
sg12
VGuns
p3524
sg14
VNNP
p3525
sg16
Nsbag4
(g5
g6
Ntp3526
Rp3527
(dp3528
g10
Vn
p3529
sg12
g3529
sg14
VNN
p3530
sg16
Nsbag4
(g5
g6
Ntp3531
Rp3532
(dp3533
g10
g2603
sg12
g2603
sg14
VPOS
p3534
sg16
Nsbag4
(g5
g6
Ntp3535
Rp3536
(dp3537
g10
Vroses
p3538
sg12
VRoses
p3539
sg14
VNNS
p3540
sg16
Nsbasg33
S'albumsofband'
p3541
sg35
g2056
sa(dp3542
g2
(lp3543
g4
(g5
g6
Ntp3544
Rp3545
(dp3546
g10
Vwhat
p3547
sg12
VWhat
p3548
sg14
VWP
p3549
sg16
Nsbag4
(g5
g6
Ntp3550
Rp3551
(dp3552
g10
Vbe
p3553
sg12
Vare
p3554
sg14
VVBP
p3555
sg16
Nsbag4
(g5
g6
Ntp3556
Rp3557
(dp3558
g10
Vtitle
p3559
sg12
Vtitles
p3560
sg14
VNNS
p3561
sg16
Nsbag4
(g5
g6
Ntp3562
Rp3563
(dp3564
g10
Vof
p3565
sg12
g3565
sg14
VIN
p3566
sg16
Nsbag4
(g5
g6
Ntp3567
Rp3568
(dp3569
g10
Valbum
p3570
sg12
Valbums
p3571
sg14
VNNS
p3572
sg16
Nsbag4
(g5
g6
Ntp3573
Rp3574
(dp3575
g10
Vfeature
p3576
sg12
Vfeaturing
p3577
sg14
VVBG
p3578
sg16
Nsbag4
(g5
g6
Ntp3579
Rp3580
(dp3581
g10
Vthe
p3582
sg12
VThe
p3583
sg14
VDT
p3584
sg16
Nsbag4
(g5
g6
Ntp3585
Rp3586
(dp3587
g10
Vblack
p3588
sg12
VBlack
p3589
sg14
VNNP
p3590
sg16
Nsbag4
(g5
g6
Ntp3591
Rp3592
(dp3593
g10
Veyed
p3594
sg12
VEyed
p3595
sg14
VNNP
p3596
sg16
Nsbag4
(g5
g6
Ntp3597
Rp3598
(dp3599
g10
Vpeas
p3600
sg12
VPeas
p3601
sg14
VNNP
p3602
sg16
Nsbag4
(g5
g6
Ntp3603
Rp3604
(dp3605
g10
g60
sg12
g60
sg14
g61
sg16
Nsbasg33
S'albumsofband'
p3606
sg35
g2056
sa(dp3607
g2
(lp3608
g4
(g5
g6
Ntp3609
Rp3610
(dp3611
g10
Vbiography
p3612
sg12
g3612
sg14
VNN
p3613
sg16
Nsbag4
(g5
g6
Ntp3614
Rp3615
(dp3616
g10
Vof
p3617
sg12
g3617
sg14
VIN
p3618
sg16
Nsbag4
(g5
g6
Ntp3619
Rp3620
(dp3621
g10
Vcharles
p3622
sg12
VCharles
p3623
sg14
VNNP
p3624
sg16
Nsbag4
(g5
g6
Ntp3625
Rp3626
(dp3627
g10
Vdickens
p3628
sg12
VDickens
p3629
sg14
VNNP
p3630
sg16
Nsbasg33
S'whois'
p3631
sg35
g2056
sa(dp3632
g2
(lp3633
g4
(g5
g6
Ntp3634
Rp3635
(dp3636
g10
Vwhen
p3637
sg12
g3637
sg14
VWRB
p3638
sg16
Nsbag4
(g5
g6
Ntp3639
Rp3640
(dp3641
g10
Vbe
p3642
sg12
Vis
p3643
sg14
VVBZ
p3644
sg16
Nsbag4
(g5
g6
Ntp3645
Rp3646
(dp3647
g10
Vangelina
p3648
sg12
VAngelina
p3649
sg14
VNNP
p3650
sg16
Nsbag4
(g5
g6
Ntp3651
Rp3652
(dp3653
g10
Vjolie
p3654
sg12
VJolie
p3655
sg14
VNNP
p3656
sg16
Nsbag4
(g5
g6
Ntp3657
Rp3658
(dp3659
g10
g2603
sg12
g2603
sg14
VPOS
p3660
sg16
Nsbag4
(g5
g6
Ntp3661
Rp3662
(dp3663
g10
g2608
sg12
g2608
sg14
VNNS
p3664
sg16
Nsbag4
(g5
g6
Ntp3665
Rp3666
(dp3667
g10
Vbirthday
p3668
sg12
g3668
sg14
VNN
p3669
sg16
Nsbag4
(g5
g6
Ntp3670
Rp3671
(dp3672
g10
g60
sg12
g60
sg14
g61
sg16
Nsbasg33
S'howoldis'
p3673
sg35
g2056
sa(dp3674
g2
(lp3675
g4
(g5
g6
Ntp3676
Rp3677
(dp3678
g10
Vwhat
p3679
sg12
g3679
sg14
VWP
p3680
sg16
Nsbag4
(g5
g6
Ntp3681
Rp3682
(dp3683
g10
Vbe
p3684
sg12
Vis
p3685
sg14
VVBZ
p3686
sg16
Nsbag4
(g5
g6
Ntp3687
Rp3688
(dp3689
g10
Vthe
p3690
sg12
g3690
sg14
VDT
p3691
sg16
Nsbag4
(g5
g6
Ntp3692
Rp3693
(dp3694
g10
Vage
p3695
sg12
g3695
sg14
VNN
p3696
sg16
Nsbag4
(g5
g6
Ntp3697
Rp3698
(dp3699
g10
Vof
p3700
sg12
g3700
sg14
VIN
p3701
sg16
Nsbag4
(g5
g6
Ntp3702
Rp3703
(dp3704
g10
Vkaty
p3705
sg12
VKaty
p3706
sg14
VNNP
p3707
sg16
Nsbag4
(g5
g6
Ntp3708
Rp3709
(dp3710
g10
Vperry
p3711
sg12
VPerry
p3712
sg14
VNNP
p3713
sg16
Nsbag4
(g5
g6
Ntp3714
Rp3715
(dp3716
g10
g60
sg12
g60
sg14
g61
sg16
Nsbasg33
S'howoldis'
p3717
sg35
g2056
sa(dp3718
g2
(lp3719
g4
(g5
g6
Ntp3720
Rp3721
(dp3722
g10
Vin
p3723
sg12
g3723
sg14
VIN
p3724
sg16
Nsbag4
(g5
g6
Ntp3725
Rp3726
(dp3727
g10
Vwhat
p3728
sg12
g3728
sg14
VWP
p3729
sg16
Nsbag4
(g5
g6
Ntp3730
Rp3731
(dp3732
g10
Vyear
p3733
sg12
g3733
sg14
VNN
p3734
sg16
Nsbag4
(g5
g6
Ntp3735
Rp3736
(dp3737
g10
Vbe
p3738
sg12
Vwas
p3739
sg14
VVBD
p3740
sg16
Nsbag4
(g5
g6
Ntp3741
Rp3742
(dp3743
g10
Vmadonna
p3744
sg12
VMadonna
p3745
sg14
VNNP
p3746
sg16
Nsbag4
(g5
g6
Ntp3747
Rp3748
(dp3749
g10
Vborn
p3750
sg12
g3750
sg14
VNN
p3751
sg16
Nsbag4
(g5
g6
Ntp3752
Rp3753
(dp3754
g10
g60
sg12
g60
sg14
g61
sg16
Nsbasg33
S'howoldis'
p3755
sg35
g2056
sa(dp3756
g2
(lp3757
g4
(g5
g6
Ntp3758
Rp3759
(dp3760
g10
Vin
p3761
sg12
g3761
sg14
VIN
p3762
sg16
Nsbag4
(g5
g6
Ntp3763
Rp3764
(dp3765
g10
Vwhat
p3766
sg12
g3766
sg14
VWP
p3767
sg16
Nsbag4
(g5
g6
Ntp3768
Rp3769
(dp3770
g10
Vdate
p3771
sg12
g3771
sg14
VNN
p3772
sg16
Nsbag4
(g5
g6
Ntp3773
Rp3774
(dp3775
g10
Vdo
p3776
sg12
Vdid
p3777
sg14
VVBD
p3778
sg16
Nsbag4
(g5
g6
Ntp3779
Rp3780
(dp3781
g10
Vbryan
p3782
sg12
VBryan
p3783
sg14
VNNP
p3784
sg16
Nsbag4
(g5
g6
Ntp3785
Rp3786
(dp3787
g10
Vcranston
p3788
sg12
VCranston
p3789
sg14
VNNP
p3790
sg16
Nsbag4
(g5
g6
Ntp3791
Rp3792
(dp3793
g10
Vborn
p3794
sg12
g3794
sg14
VNN
p3795
sg16
Nsbag4
(g5
g6
Ntp3796
Rp3797
(dp3798
g10
g60
sg12
g60
sg14
g61
sg16
Nsbasg33
S'howoldis'
p3799
sg35
g2056
sa(dp3800
g2
(lp3801
g4
(g5
g6
Ntp3802
Rp3803
(dp3804
g10
Vwhen
p3805
sg12
g3805
sg14
VWRB
p3806
sg16
Nsbag4
(g5
g6
Ntp3807
Rp3808
(dp3809
g10
Vbe
p3810
sg12
Vwas
p3811
sg14
VVBD
p3812
sg16
Nsbag4
(g5
g6
Ntp3813
Rp3814
(dp3815
g10
Vgeorge
p3816
sg12
VGeorge
p3817
sg14
VNNP
p3818
sg16
Nsbag4
(g5
g6
Ntp3819
Rp3820
(dp3821
g10
Vclooney
p3822
sg12
VClooney
p3823
sg14
VNNP
p3824
sg16
Nsbag4
(g5
g6
Ntp3825
Rp3826
(dp3827
g10
Vborn
p3828
sg12
g3828
sg14
VNN
p3829
sg16
Nsbag4
(g5
g6
Ntp3830
Rp3831
(dp3832
g10
g60
sg12
g60
sg14
g61
sg16
Nsbasg33
S'howoldis'
p3833
sg35
g2056
sa(dp3834
g2
(lp3835
g4
(g5
g6
Ntp3836
Rp3837
(dp3838
g10
Vwhere
p3839
sg12
g3839
sg14
VWRB
p3840
sg16
Nsbag4
(g5
g6
Ntp3841
Rp3842
(dp3843
g10
Vbe
p3844
sg12
Vwas
p3845
sg14
VVBD
p3846
sg16
Nsbag4
(g5
g6
Ntp3847
Rp3848
(dp3849
g10
Vmatt
p3850
sg12
VMatt
p3851
sg14
VNNP
p3852
sg16
Nsbag4
(g5
g6
Ntp3853
Rp3854
(dp3855
g10
Vdamon
p3856
sg12
VDamon
p3857
sg14
VNNP
p3858
sg16
Nsbag4
(g5
g6
Ntp3859
Rp3860
(dp3861
g10
Vborn
p3862
sg12
g3862
sg14
VNN
p3863
sg16
Nsbag4
(g5
g6
Ntp3864
Rp3865
(dp3866
g10
g60
sg12
g60
sg14
g61
sg16
Nsbasg33
S'whereisfrom'
p3867
sg35
g2056
sa(dp3868
g2
(lp3869
g4
(g5
g6
Ntp3870
Rp3871
(dp3872
g10
Vwhere
p3873
sg12
VWhere
p3874
sg14
VWRB
p3875
sg16
Nsbag4
(g5
g6
Ntp3876
Rp3877
(dp3878
g10
Vdo
p3879
sg12
Vdid
p3880
sg14
VVBD
p3881
sg16
Nsbag4
(g5
g6
Ntp3882
Rp3883
(dp3884
g10
Vhe
p3885
sg12
g3885
sg14
VPRP
p3886
sg16
Nsbag4
(g5
g6
Ntp3887
Rp3888
(dp3889
g10
Vgrow
p3890
sg12
g3890
sg14
VNN
p3891
sg16
Nsbag4
(g5
g6
Ntp3892
Rp3893
(dp3894
g10
Vup
p3895
sg12
g3895
sg14
VRP
p3896
sg16
Nsbag4
(g5
g6
Ntp3897
Rp3898
(dp3899
g10
g60
sg12
g60
sg14
g61
sg16
Nsbasg33
S'whereisfrom'
p3900
sg35
g2056
sa(dp3901
g2
(lp3902
g4
(g5
g6
Ntp3903
Rp3904
(dp3905
g10
Vwhere
p3906
sg12
g3906
sg14
VWRB
p3907
sg16
Nsbag4
(g5
g6
Ntp3908
Rp3909
(dp3910
g10
Vdo
p3911
sg12
Vdid
p3912
sg14
VVBD
p3913
sg16
Nsbag4
(g5
g6
Ntp3914
Rp3915
(dp3916
g10
Vj
p3917
sg12
VJ
p3918
sg14
VNNP
p3919
sg16
Nsbag4
(g5
g6
Ntp3920
Rp3921
(dp3922
g10
g61
sg12
g61
sg14
g61
sg16
Nsbag4
(g5
g6
Ntp3923
Rp3924
(dp3925
g10
Vr
p3926
sg12
VR
p3927
sg14
VNNP
p3928
sg16
Nsbag4
(g5
g6
Ntp3929
Rp3930
(dp3931
g10
g61
sg12
g61
sg14
g61
sg16
Nsbag4
(g5
g6
Ntp3932
Rp3933
(dp3934
g10
Vr
p3935
sg12
g3927
sg14
VNNP
p3936
sg16
Nsbag4
(g5
g6
Ntp3937
Rp3938
(dp3939
g10
g61
sg12
g61
sg14
g61
sg16
Nsbag4
(g5
g6
Ntp3940
Rp3941
(dp3942
g10
Vtolkien
p3943
sg12
VTolkien
p3944
sg14
VNNP
p3945
sg16
Nsbag4
(g5
g6
Ntp3946
Rp3947
(dp3948
g10
Vborn
p3949
sg12
g3949
sg14
VNN
p3950
sg16
Nsbag4
(g5
g6
Ntp3951
Rp3952
(dp3953
g10
g60
sg12
g60
sg14
g61
sg16
Nsbasg33
S'whereisfrom'
p3954
sg35
g2056
sa(dp3955
g2
(lp3956
g4
(g5
g6
Ntp3957
Rp3958
(dp3959
g10
Vwhich
p3960
sg12
g3960
sg14
VWDT
p3961
sg16
Nsbag4
(g5
g6
Ntp3962
Rp3963
(dp3964
g10
Vbe
p3965
sg12
Vare
p3966
sg14
VVBP
p3967
sg16
Nsbag4
(g5
g6
Ntp3968
Rp3969
(dp3970
g10
Vthe
p3971
sg12
g3971
sg14
VDT
p3972
sg16
Nsbag4
(g5
g6
Ntp3973
Rp3974
(dp3975
g10
Vactor
p3976
sg12
Vactors
p3977
sg14
VNNS
p3978
sg16
Nsbag4
(g5
g6
Ntp3979
Rp3980
(dp3981
g10
Vof
p3982
sg12
g3982
sg14
VIN
p3983
sg16
Nsbag4
(g5
g6
Ntp3984
Rp3985
(dp3986
g10
Vgrey
p3987
sg12
VGrey
p3988
sg14
VNNP
p3989
sg16
Nsbag4
(g5
g6
Ntp3990
Rp3991
(dp3992
g10
g2603
sg12
g2603
sg14
VPOS
p3993
sg16
Nsbag4
(g5
g6
Ntp3994
Rp3995
(dp3996
g10
g2608
sg12
g2608
sg14
VNNS
p3997
sg16
Nsbag4
(g5
g6
Ntp3998
Rp3999
(dp4000
g10
Vanatomy
p4001
sg12
VAnatomy
p4002
sg14
VNNP
p4003
sg16
Nsbasg33
S'castof'
p4004
sg35
g2056
sa(dp4005
g2
(lp4006
g4
(g5
g6
Ntp4007
Rp4008
(dp4009
g10
Vlist
p4010
sg12
g4010
sg14
VNN
p4011
sg16
Nsbag4
(g5
g6
Ntp4012
Rp4013
(dp4014
g10
Vof
p4015
sg12
g4015
sg14
VIN
p4016
sg16
Nsbag4
(g5
g6
Ntp4017
Rp4018
(dp4019
g10
Vactor
p4020
sg12
Vactors
p4021
sg14
VNNS
p4022
sg16
Nsbag4
(g5
g6
Ntp4023
Rp4024
(dp4025
g10
Vof
p4026
sg12
g4026
sg14
VIN
p4027
sg16
Nsbag4
(g5
g6
Ntp4028
Rp4029
(dp4030
g10
Vthe
p4031
sg12
g4031
sg14
VDT
p4032
sg16
Nsbag4
(g5
g6
Ntp4033
Rp4034
(dp4035
g10
Vshow
p4036
sg12
g4036
sg14
VNN
p4037
sg16
Nsbag4
(g5
g6
Ntp4038
Rp4039
(dp4040
g10
Vthe
p4041
sg12
VThe
p4042
sg14
VDT
p4043
sg16
Nsbag4
(g5
g6
Ntp4044
Rp4045
(dp4046
g10
Vaddams
p4047
sg12
VAddams
p4048
sg14
VNNP
p4049
sg16
Nsbag4
(g5
g6
Ntp4050
Rp4051
(dp4052
g10
Vfamily
p4053
sg12
VFamily
p4054
sg14
VNNP
p4055
sg16
Nsbasg33
S'castof'
p4056
sg35
g2056
sa(dp4057
g2
(lp4058
g4
(g5
g6
Ntp4059
Rp4060
(dp4061
g10
Vwhich
p4062
sg12
g4062
sg14
VWDT
p4063
sg16
Nsbag4
(g5
g6
Ntp4064
Rp4065
(dp4066
g10
Vbe
p4067
sg12
Vwere
p4068
sg14
VVBD
p4069
sg16
Nsbag4
(g5
g6
Ntp4070
Rp4071
(dp4072
g10
Vthe
p4073
sg12
g4073
sg14
VDT
p4074
sg16
Nsbag4
(g5
g6
Ntp4075
Rp4076
(dp4077
g10
Vactor
p4078
sg12
Vactors
p4079
sg14
VNNS
p4080
sg16
Nsbag4
(g5
g6
Ntp4081
Rp4082
(dp4083
g10
Vof
p4084
sg12
g4084
sg14
VIN
p4085
sg16
Nsbag4
(g5
g6
Ntp4086
Rp4087
(dp4088
g10
Vthe
p4089
sg12
g4089
sg14
VDT
p4090
sg16
Nsbag4
(g5
g6
Ntp4091
Rp4092
(dp4093
g10
Vtv
p4094
sg12
VTV
p4095
sg14
VNN
p4096
sg16
Nsbag4
(g5
g6
Ntp4097
Rp4098
(dp4099
g10
Vshow
p4100
sg12
g4100
sg14
VNN
p4101
sg16
Nsbag4
(g5
g6
Ntp4102
Rp4103
(dp4104
g10
Vuggly
p4105
sg12
VUggly
p4106
sg14
VRB
p4107
sg16
Nsbag4
(g5
g6
Ntp4108
Rp4109
(dp4110
g10
Vbetty
p4111
sg12
VBetty
p4112
sg14
VNNP
p4113
sg16
Nsbasg33
S'castof'
p4114
sg35
g2056
sa(dp4115
g2
(lp4116
g4
(g5
g6
Ntp4117
Rp4118
(dp4119
g10
Vwhat
p4120
sg12
g4120
sg14
VWP
p4121
sg16
Nsbag4
(g5
g6
Ntp4122
Rp4123
(dp4124
g10
Vtv
p4125
sg12
VTV
p4126
sg14
VNN
p4127
sg16
Nsbag4
(g5
g6
Ntp4128
Rp4129
(dp4130
g10
Vshow
p4131
sg12
Vshows
p4132
sg14
VVBZ
p4133
sg16
Nsbag4
(g5
g6
Ntp4134
Rp4135
(dp4136
g10
Vbe
p4137
sg12
Vare
p4138
sg14
VVBP
p4139
sg16
Nsbag4
(g5
g6
Ntp4140
Rp4141
(dp4142
g10
g60
sg12
g60
sg14
g61
sg16
Nsbasg33
S'listtvshows'
p4143
sg35
g2056
sa(dp4144
g2
(lp4145
g4
(g5
g6
Ntp4146
Rp4147
(dp4148
g10
Vwhat
p4149
sg12
g4149
sg14
VWP
p4150
sg16
Nsbag4
(g5
g6
Ntp4151
Rp4152
(dp4153
g10
Vtv
p4154
sg12
VTV
p4155
sg14
VNN
p4156
sg16
Nsbag4
(g5
g6
Ntp4157
Rp4158
(dp4159
g10
Vshow
p4160
sg12
Vshows
p4161
sg14
VVBZ
p4162
sg16
Nsbag4
(g5
g6
Ntp4163
Rp4164
(dp4165
g10
Vhave
p4166
sg12
g4166
sg14
VVB
p4167
sg16
Nsbag4
(g5
g6
Ntp4168
Rp4169
(dp4170
g10
Vbe
p4171
sg12
Vbeen
p4172
sg14
VVBN
p4173
sg16
Nsbag4
(g5
g6
Ntp4174
Rp4175
(dp4176
g10
Vmake
p4177
sg12
Vmade
p4178
sg14
VVBN
p4179
sg16
Nsbag4
(g5
g6
Ntp4180
Rp4181
(dp4182
g10
g60
sg12
g60
sg14
g61
sg16
Nsbasg33
S'listtvshows'
p4183
sg35
g2056
sa(dp4184
g2
(lp4185
g4
(g5
g6
Ntp4186
Rp4187
(dp4188
g10
Vshow
p4189
sg12
Vshows
p4190
sg14
VNNS
p4191
sg16
Nsbag4
(g5
g6
Ntp4192
Rp4193
(dp4194
g10
Vwhere
p4195
sg12
g4195
sg14
VWRB
p4196
sg16
Nsbag4
(g5
g6
Ntp4197
Rp4198
(dp4199
g10
Vmatthew
p4200
sg12
VMatthew
p4201
sg14
VNNP
p4202
sg16
Nsbag4
(g5
g6
Ntp4203
Rp4204
(dp4205
g10
Vperry
p4206
sg12
VPerry
p4207
sg14
VNNP
p4208
sg16
Nsbag4
(g5
g6
Ntp4209
Rp4210
(dp4211
g10
Vwork
p4212
sg12
Vworked
p4213
sg14
VVBD
p4214
sg16
Nsbag4
(g5
g6
Ntp4215
Rp4216
(dp4217
g10
Vin
p4218
sg12
g4218
sg14
VIN
p4219
sg16
Nsbag4
(g5
g6
Ntp4220
Rp4221
(dp4222
g10
g60
sg12
g60
sg14
g61
sg16
Nsbasg33
S'showswith'
p4223
sg35
g2056
sa(dp4224
g2
(lp4225
g4
(g5
g6
Ntp4226
Rp4227
(dp4228
g10
Vwho
p4229
sg12
g4229
sg14
VWP
p4230
sg16
Nsbag4
(g5
g6
Ntp4231
Rp4232
(dp4233
g10
Vcreate
p4234
sg12
g4234
sg14
VVBP
p4235
sg16
Nsbag4
(g5
g6
Ntp4236
Rp4237
(dp4238
g10
Vstargate
p4239
sg12
VStargate
p4240
sg14
VNNP
p4241
sg16
Nsbag4
(g5
g6
Ntp4242
Rp4243
(dp4244
g10
Vatlantis
p4245
sg12
VAtlantis
p4246
sg14
VNNP
p4247
sg16
Nsbag4
(g5
g6
Ntp4248
Rp4249
(dp4250
g10
g60
sg12
g60
sg14
g61
sg16
Nsbasg33
S'creatorof'
p4251
sg35
g2056
sa(dp4252
g2
(lp4253
g4
(g5
g6
Ntp4254
Rp4255
(dp4256
g10
Vwho
p4257
sg12
g4257
sg14
VWP
p4258
sg16
Nsbag4
(g5
g6
Ntp4259
Rp4260
(dp4261
g10
Vbe
p4262
sg12
Vis
p4263
sg14
VVBZ
p4264
sg16
Nsbag4
(g5
g6
Ntp4265
Rp4266
(dp4267
g10
Vthe
p4268
sg12
g4268
sg14
VDT
p4269
sg16
Nsbag4
(g5
g6
Ntp4270
Rp4271
(dp4272
g10
Vwriter
p4273
sg12
g4273
sg14
VNN
p4274
sg16
Nsbag4
(g5
g6
Ntp4275
Rp4276
(dp4277
g10
Vof
p4278
sg12
g4278
sg14
VIN
p4279
sg16
Nsbag4
(g5
g6
Ntp4280
Rp4281
(dp4282
g10
Vthe
p4283
sg12
VThe
p4284
sg14
VDT
p4285
sg16
Nsbag4
(g5
g6
Ntp4286
Rp4287
(dp4288
g10
Vlord
p4289
sg12
VLord
p4290
sg14
VNNP
p4291
sg16
Nsbag4
(g5
g6
Ntp4292
Rp4293
(dp4294
g10
Vof
p4295
sg12
g4295
sg14
VIN
p4296
sg16
Nsbag4
(g5
g6
Ntp4297
Rp4298
(dp4299
g10
Vthe
p4300
sg12
g4300
sg14
VDT
p4301
sg16
Nsbag4
(g5
g6
Ntp4302
Rp4303
(dp4304
g10
Vrings
p4305
sg12
VRings
p4306
sg14
VNNP
p4307
sg16
Nsbag4
(g5
g6
Ntp4308
Rp4309
(dp4310
g10
g60
sg12
g60
sg14
g61
sg16
Nsbasg33
S'creatorof'
p4311
sg35
g2056
sa(dp4312
g2
(lp4313
g4
(g5
g6
Ntp4314
Rp4315
(dp4316
g10
Vwho
p4317
sg12
g4317
sg14
VWP
p4318
sg16
Nsbag4
(g5
g6
Ntp4319
Rp4320
(dp4321
g10
Vcreate
p4322
sg12
g4322
sg14
VVBP
p4323
sg16
Nsbag4
(g5
g6
Ntp4324
Rp4325
(dp4326
g10
Vthe
p4327
sg12
VThe
p4328
sg14
VDT
p4329
sg16
Nsbag4
(g5
g6
Ntp4330
Rp4331
(dp4332
g10
Vneverending
p4333
sg12
VNeverending
p4334
sg14
VNNP
p4335
sg16
Nsbag4
(g5
g6
Ntp4336
Rp4337
(dp4338
g10
Vstory
p4339
sg12
VStory
p4340
sg14
VNNP
p4341
sg16
Nsbag4
(g5
g6
Ntp4342
Rp4343
(dp4344
g10
g60
sg12
g60
sg14
g61
sg16
Nsbasg33
S'creatorof'
p4345
sg35
g2056
sa(dp4346
g2
(lp4347
g4
(g5
g6
Ntp4348
Rp4349
(dp4350
g10
Vlist
p4351
sg12
g4351
sg14
VNN
p4352
sg16
Nsbag4
(g5
g6
Ntp4353
Rp4354
(dp4355
g10
Vbook
p4356
sg12
Vbooks
p4357
sg14
VNNS
p4358
sg16
Nsbag4
(g5
g6
Ntp4359
Rp4360
(dp4361
g10
Vwrite
p4362
sg12
Vwritten
p4363
sg14
VVBN
p4364
sg16
Nsbag4
(g5
g6
Ntp4365
Rp4366
(dp4367
g10
Vby
p4368
sg12
g4368
sg14
VIN
p4369
sg16
Nsbag4
(g5
g6
Ntp4370
Rp4371
(dp4372
g10
Vj
p4373
sg12
g3918
sg14
VNNP
p4374
sg16
Nsbag4
(g5
g6
Ntp4375
Rp4376
(dp4377
g10
g61
sg12
g61
sg14
g61
sg16
Nsbag4
(g5
g6
Ntp4378
Rp4379
(dp4380
g10
Vk
p4381
sg12
VK
p4382
sg14
VNNP
p4383
sg16
Nsbag4
(g5
g6
Ntp4384
Rp4385
(dp4386
g10
g61
sg12
g61
sg14
g61
sg16
Nsbag4
(g5
g6
Ntp4387
Rp4388
(dp4389
g10
Vrowling
p4390
sg12
VRowling
p4391
sg14
VNNP
p4392
sg16
Nsbasg33
S'booksbyauthor'
p4393
sg35
g2056
sa(dp4394
g2
(lp4395
g4
(g5
g6
Ntp4396
Rp4397
(dp4398
g10
Vlist
p4399
sg12
g4399
sg14
VNN
p4400
sg16
Nsbag4
(g5
g6
Ntp4401
Rp4402
(dp4403
g10
Vof
p4404
sg12
g4404
sg14
VIN
p4405
sg16
Nsbag4
(g5
g6
Ntp4406
Rp4407
(dp4408
g10
Vworks
p4409
sg12
g4409
sg14
VNNS
p4410
sg16
Nsbag4
(g5
g6
Ntp4411
Rp4412
(dp4413
g10
Vwrite
p4414
sg12
Vwritten
p4415
sg14
VVBN
p4416
sg16
Nsbag4
(g5
g6
Ntp4417
Rp4418
(dp4419
g10
Vby
p4420
sg12
g4420
sg14
VIN
p4421
sg16
Nsbag4
(g5
g6
Ntp4422
Rp4423
(dp4424
g10
Vgeorge
p4425
sg12
VGeorge
p4426
sg14
VNNP
p4427
sg16
Nsbag4
(g5
g6
Ntp4428
Rp4429
(dp4430
g10
Vr
p4431
sg12
g3927
sg14
VNNP
p4432
sg16
Nsbag4
(g5
g6
Ntp4433
Rp4434
(dp4435
g10
g61
sg12
g61
sg14
g61
sg16
Nsbag4
(g5
g6
Ntp4436
Rp4437
(dp4438
g10
Vr
p4439
sg12
g3927
sg14
VNNP
p4440
sg16
Nsbag4
(g5
g6
Ntp4441
Rp4442
(dp4443
g10
g61
sg12
g61
sg14
g61
sg16
Nsbag4
(g5
g6
Ntp4444
Rp4445
(dp4446
g10
Vmartin
p4447
sg12
VMartin
p4448
sg14
VNNP
p4449
sg16
Nsbasg33
S'booksbyauthor'
p4450
sg35
g2056
sa(dp4451
g2
(lp4452
g4
(g5
g6
Ntp4453
Rp4454
(dp4455
g10
Vlist
p4456
sg12
g4456
sg14
VNN
p4457
sg16
Nsbag4
(g5
g6
Ntp4458
Rp4459
(dp4460
g10
Vof
p4461
sg12
g4461
sg14
VIN
p4462
sg16
Nsbag4
(g5
g6
Ntp4463
Rp4464
(dp4465
g10
Vbook
p4466
sg12
Vbooks
p4467
sg14
VNNS
p4468
sg16
Nsbag4
(g5
g6
Ntp4469
Rp4470
(dp4471
g10
Vcreate
p4472
sg12
Vcreated
p4473
sg14
VVBN
p4474
sg16
Nsbag4
(g5
g6
Ntp4475
Rp4476
(dp4477
g10
Vby
p4478
sg12
g4478
sg14
VIN
p4479
sg16
Nsbag4
(g5
g6
Ntp4480
Rp4481
(dp4482
g10
Vagatha
p4483
sg12
VAgatha
p4484
sg14
VNNP
p4485
sg16
Nsbag4
(g5
g6
Ntp4486
Rp4487
(dp4488
g10
Vchristie
p4489
sg12
VChristie
p4490
sg14
VNNP
p4491
sg16
Nsbasg33
S'booksbyauthor'
p4492
sg35
g2056
sa(dp4493
g2
(lp4494
g4
(g5
g6
Ntp4495
Rp4496
(dp4497
g10
Vwhat
p4498
sg12
VWhat
p4499
sg14
VWP
p4500
sg16
Nsbag4
(g5
g6
Ntp4501
Rp4502
(dp4503
g10
Vbe
p4504
sg12
Vare
p4505
sg14
VVBP
p4506
sg16
Nsbag4
(g5
g6
Ntp4507
Rp4508
(dp4509
g10
Vtitle
p4510
sg12
Vtitles
p4511
sg14
VNNS
p4512
sg16
Nsbag4
(g5
g6
Ntp4513
Rp4514
(dp4515
g10
Vof
p4516
sg12
g4516
sg14
VIN
p4517
sg16
Nsbag4
(g5
g6
Ntp4518
Rp4519
(dp4520
g10
Vbook
p4521
sg12
Vbooks
p4522
sg14
VNNS
p4523
sg16
Nsbag4
(g5
g6
Ntp4524
Rp4525
(dp4526
g10
Vwrite
p4527
sg12
Vwritten
p4528
sg14
VVBN
p4529
sg16
Nsbag4
(g5
g6
Ntp4530
Rp4531
(dp4532
g10
Vby
p4533
sg12
g4533
sg14
VIN
p4534
sg16
Nsbag4
(g5
g6
Ntp4535
Rp4536
(dp4537
g10
Vdan
p4538
sg12
VDan
p4539
sg14
VNNP
p4540
sg16
Nsbag4
(g5
g6
Ntp4541
Rp4542
(dp4543
g10
Vbrown
p4544
sg12
VBrown
p4545
sg14
VNNP
p4546
sg16
Nsbag4
(g5
g6
Ntp4547
Rp4548
(dp4549
g10
g60
sg12
g60
sg14
g61
sg16
Nsbasg33
S''
p4550
sg35
S'booksbyauthor'
p4551
sa(dp4552
g2
(lp4553
g4
(g5
g6
Ntp4554
Rp4555
(dp4556
g10
Vwhat
p4557
sg12
VWhat
p4558
sg14
VWP
p4559
sg16
Nsbag4
(g5
g6
Ntp4560
Rp4561
(dp4562
g10
Vmovie
p4563
sg12
Vmovies
p4564
sg14
VNNS
p4565
sg16
Nsbag4
(g5
g6
Ntp4566
Rp4567
(dp4568
g10
Vdo
p4569
sg12
Vdid
p4570
sg14
VVBD
p4571
sg16
Nsbag4
(g5
g6
Ntp4572
Rp4573
(dp4574
g10
Vjames
p4575
sg12
VJames
p4576
sg14
VNNP
p4577
sg16
Nsbag4
(g5
g6
Ntp4578
Rp4579
(dp4580
g10
Vdean
p4581
sg12
VDean
p4582
sg14
VNNP
p4583
sg16
Nsbag4
(g5
g6
Ntp4584
Rp4585
(dp4586
g10
Vappear
p4587
sg12
g4587
sg14
VNN
p4588
sg16
Nsbag4
(g5
g6
Ntp4589
Rp4590
(dp4591
g10
Vin
p4592
sg12
g4592
sg14
VIN
p4593
sg16
Nsbag4
(g5
g6
Ntp4594
Rp4595
(dp4596
g10
g60
sg12
g60
sg14
g61
sg16
Nsbasg33
S'actedon'
p4597
sg35
g2056
sa.