(lp0
(dp1
S'question'
p2
(lp3
ccopy_reg
_reconstructor
p4
(cquepy.tagger
Word
p5
c__builtin__
object
p6
Ntp7
Rp8
(dp9
S'lemma'
p10
Vwhat
p11
sS'token'
p12
VWhat
p13
sS'pos'
p14
VWP
p15
sS'prob'
p16
Nsbag4
(g5
g6
Ntp17
Rp18
(dp19
g10
Vbe
p20
sg12
Vis
p21
sg14
VVBZ
p22
sg16
Nsbag4
(g5
g6
Ntp23
Rp24
(dp25
g10
Va
p26
sg12
g26
sg14
VDT
p27
sg16
Nsbag4
(g5
g6
Ntp28
Rp29
(dp30
g10
Vcar
p31
sg12
g31
sg14
VNN
p32
sg16
NsbasS'target'
p33
S'whatis'
p34
sS'recognized'
p35
I01
sa(dp36
g2
(lp37
g4
(g5
g6
Ntp38
Rp39
(dp40
g10
Vwhat
p41
sg12
VWhat
p42
sg14
VWP
p43
sg16
Nsbag4
(g5
g6
Ntp44
Rp45
(dp46
g10
Vbe
p47
sg12
Vis
p48
sg14
VVBZ
p49
sg16
Nsbag4
(g5
g6
Ntp50
Rp51
(dp52
g10
Vseinfield
p53
sg12
VSeinfield
p54
sg14
VNNP
p55
sg16
Nsbag4
(g5
g6
Ntp56
Rp57
(dp58
g10
V?
p59
sg12
g59
sg14
V.
p60
sg16
Nsbasg33
S'whatis'
p61
sg35
I01
sa(dp62
g2
(lp63
g4
(g5
g6
Ntp64
Rp65
(dp66
g10
Vwhere
p67
sg12
g67
sg14
VWRB
p68
sg16
Nsbag4
(g5
g6
Ntp69
Rp70
(dp71
g10
Vin
p72
sg12
g72
sg14
VIN
p73
sg16
Nsbag4
(g5
g6
Ntp74
Rp75
(dp76
g10
Vthe
p77
sg12
g77
sg14
VDT
p78
sg16
Nsbag4
(g5
g6
Ntp79
Rp80
(dp81
g10
Vworld
p82
sg12
g82
sg14
VNN
p83
sg16
Nsbag4
(g5
g6
Ntp84
Rp85
(dp86
g10
Vbe
p87
sg12
Vis
p88
sg14
VVBZ
p89
sg16
Nsbag4
(g5
g6
Ntp90
Rp91
(dp92
g10
Vthe
p93
sg12
g93
sg14
VDT
p94
sg16
Nsbag4
(g5
g6
Ntp95
Rp96
(dp97
g10
Veiffel
p98
sg12
VEiffel
p99
sg14
VNNP
p100
sg16
Nsbag4
(g5
g6
Ntp101
Rp102
(dp103
g10
Vtower
p104
sg12
VTower
p105
sg14
VNNP
p106
sg16
Nsbasg33
S'whereis'
p107
sg35
I01
sa(dp108
g2
(lp109
g4
(g5
g6
Ntp110
Rp111
(dp112
g10
Vlist
p113
sg12
g113
sg14
VNN
p114
sg16
Nsbag4
(g5
g6
Ntp115
Rp116
(dp117
g10
Vpresident
p118
sg12
Vpresidents
p119
sg14
VNNS
p120
sg16
Nsbag4
(g5
g6
Ntp121
Rp122
(dp123
g10
Vof
p124
sg12
g124
sg14
VIN
p125
sg16
Nsbag4
(g5
g6
Ntp126
Rp127
(dp128
g10
Vargentina
p129
sg12
VArgentina
p130
sg14
VNNP
p131
sg16
Nsbag4
(g5
g6
Ntp132
Rp133
(dp134
g10
g59
sg12
g59
sg14
g60
sg16
Nsbasg33
S'presidentsof'
p135
sg35
I01
sa(dp136
g2
(lp137
g4
(g5
g6
Ntp138
Rp139
(dp140
g10
Vwhat
p141
sg12
VWhat
p142
sg14
VWP
p143
sg16
Nsbag4
(g5
g6
Ntp144
Rp145
(dp146
g10
Vbe
p147
sg12
Vis
p148
sg14
VVBZ
p149
sg16
Nsbag4
(g5
g6
Ntp150
Rp151
(dp152
g10
Vthe
p153
sg12
g153
sg14
VDT
p154
sg16
Nsbag4
(g5
g6
Ntp155
Rp156
(dp157
g10
Vcapital
p158
sg12
g158
sg14
VNN
p159
sg16
Nsbag4
(g5
g6
Ntp160
Rp161
(dp162
g10
Vof
p163
sg12
g163
sg14
VIN
p164
sg16
Nsbag4
(g5
g6
Ntp165
Rp166
(dp167
g10
Vbolivia
p168
sg12
VBolivia
p169
sg14
VNNP
p170
sg16
Nsbag4
(g5
g6
Ntp171
Rp172
(dp173
g10
g59
sg12
g59
sg14
g60
sg16
Nsbasg33
S'capitalcityof'
p174
sg35
I01
sa(dp175
g2
(lp176
g4
(g5
g6
Ntp177
Rp178
(dp179
g10
Vwhat
p180
sg12
VWhat
p181
sg14
VWP
p182
sg16
Nsbag4
(g5
g6
Ntp183
Rp184
(dp185
g10
Vbe
p186
sg12
Vis
p187
sg14
VVBZ
p188
sg16
Nsbag4
(g5
g6
Ntp189
Rp190
(dp191
g10
Vthe
p192
sg12
g192
sg14
VDT
p193
sg16
Nsbag4
(g5
g6
Ntp194
Rp195
(dp196
g10
Vlanguage
p197
sg12
g197
sg14
VNN
p198
sg16
Nsbag4
(g5
g6
Ntp199
Rp200
(dp201
g10
Vof
p202
sg12
g202
sg14
VIN
p203
sg16
Nsbag4
(g5
g6
Ntp204
Rp205
(dp206
g10
Vliberia
p207
sg12
VLiberia
p208
sg14
VNNP
p209
sg16
Nsbag4
(g5
g6
Ntp210
Rp211
(dp212
g10
g59
sg12
g59
sg14
g60
sg16
Nsbasg33
S'spokenlanguageof'
p213
sg35
I01
sa(dp214
g2
(lp215
g4
(g5
g6
Ntp216
Rp217
(dp218
g10
Vwhat
p219
sg12
VWhat
p220
sg14
VWP
p221
sg16
Nsbag4
(g5
g6
Ntp222
Rp223
(dp224
g10
Vbe
p225
sg12
Vis
p226
sg14
VVBZ
p227
sg16
Nsbag4
(g5
g6
Ntp228
Rp229
(dp230
g10
Vthe
p231
sg12
g231
sg14
VDT
p232
sg16
Nsbag4
(g5
g6
Ntp233
Rp234
(dp235
g10
Vspeak
p236
sg12
Vspoken
p237
sg14
VVBN
p238
sg16
Nsbag4
(g5
g6
Ntp239
Rp240
(dp241
g10
Vlanguage
p242
sg12
g242
sg14
VNN
p243
sg16
Nsbag4
(g5
g6
Ntp244
Rp245
(dp246
g10
Vin
p247
sg12
g247
sg14
VIN
p248
sg16
Nsbag4
(g5
g6
Ntp249
Rp250
(dp251
g10
Vrussia
p252
sg12
VRussia
p253
sg14
VNNP
p254
sg16
Nsbag4
(g5
g6
Ntp255
Rp256
(dp257
g10
g59
sg12
g59
sg14
g60
sg16
Nsbasg33
S'spokenlanguageof'
p258
sg35
I01
sa(dp259
g2
(lp260
g4
(g5
g6
Ntp261
Rp262
(dp263
g10
Vwhat
p264
sg12
VWhat
p265
sg14
VWP
p266
sg16
Nsbag4
(g5
g6
Ntp267
Rp268
(dp269
g10
Vbe
p270
sg12
Vis
p271
sg14
VVBZ
p272
sg16
Nsbag4
(g5
g6
Ntp273
Rp274
(dp275
g10
Vthe
p276
sg12
g276
sg14
VDT
p277
sg16
Nsbag4
(g5
g6
Ntp278
Rp279
(dp280
g10
Vpopulation
p281
sg12
g281
sg14
VNN
p282
sg16
Nsbag4
(g5
g6
Ntp283
Rp284
(dp285
g10
Vof
p286
sg12
g286
sg14
VIN
p287
sg16
Nsbag4
(g5
g6
Ntp288
Rp289
(dp290
g10
Vchina
p291
sg12
VChina
p292
sg14
VNNP
p293
sg16
Nsbag4
(g5
g6
Ntp294
Rp295
(dp296
g10
g59
sg12
g59
sg14
g60
sg16
Nsbasg33
S'populationof'
p297
sg35
I01
sa(dp298
g2
(lp299
g4
(g5
g6
Ntp300
Rp301
(dp302
g10
Vhow
p303
sg12
g303
sg14
VWRB
p304
sg16
Nsbag4
(g5
g6
Ntp305
Rp306
(dp307
g10
Vmany
p308
sg12
g308
sg14
VJJ
p309
sg16
Nsbag4
(g5
g6
Ntp310
Rp311
(dp312
g10
Vpeople
p313
sg12
g313
sg14
VNNS
p314
sg16
Nsbag4
(g5
g6
Ntp315
Rp316
(dp317
g10
Vlive
p318
sg12
g318
sg14
VVBP
p319
sg16
Nsbag4
(g5
g6
Ntp320
Rp321
(dp322
g10
Vin
p323
sg12
g323
sg14
VIN
p324
sg16
Nsbag4
(g5
g6
Ntp325
Rp326
(dp327
g10
Vaustralia
p328
sg12
VAustralia
p329
sg14
VNNP
p330
sg16
Nsbag4
(g5
g6
Ntp331
Rp332
(dp333
g10
g59
sg12
g59
sg14
g60
sg16
Nsbasg33
S'populationof'
p334
sg35
I01
sa(dp335
g2
(lp336
g4
(g5
g6
Ntp337
Rp338
(dp339
g10
Vlist
p340
sg12
VList
p341
sg14
VNNP
p342
sg16
Nsbag4
(g5
g6
Ntp343
Rp344
(dp345
g10
Vmovie
p346
sg12
Vmovies
p347
sg14
VNNS
p348
sg16
Nsbasg33
S'listmovies'
p349
sg35
I01
sa(dp350
g2
(lp351
g4
(g5
g6
Ntp352
Rp353
(dp354
g10
Vlist
p355
sg12
VList
p356
sg14
VNNP
p357
sg16
Nsbag4
(g5
g6
Ntp358
Rp359
(dp360
g10
Vmovie
p361
sg12
Vmovies
p362
sg14
VNNS
p363
sg16
Nsbag4
(g5
g6
Ntp364
Rp365
(dp366
g10
Vdirect
p367
sg12
Vdirected
p368
sg14
VVBD
p369
sg16
Nsbag4
(g5
g6
Ntp370
Rp371
(dp372
g10
Vby
p373
sg12
g373
sg14
VIN
p374
sg16
Nsbag4
(g5
g6
Ntp375
Rp376
(dp377
g10
Vquentin
p378
sg12
VQuentin
p379
sg14
VNNP
p380
sg16
Nsbag4
(g5
g6
Ntp381
Rp382
(dp383
g10
Vtarantino
p384
sg12
VTarantino
p385
sg14
VNNP
p386
sg16
Nsbag4
(g5
g6
Ntp387
Rp388
(dp389
g10
g60
sg12
g60
sg14
g60
sg16
Nsbasg33
S'moviesbydirector'
p390
sg35
I01
sa(dp391
g2
(lp392
g4
(g5
g6
Ntp393
Rp394
(dp395
g10
Vmovie
p396
sg12
Vmovies
p397
sg14
VNNS
p398
sg16
Nsbag4
(g5
g6
Ntp399
Rp400
(dp401
g10
Vdirect
p402
sg12
Vdirected
p403
sg14
VVBD
p404
sg16
Nsbag4
(g5
g6
Ntp405
Rp406
(dp407
g10
Vby
p408
sg12
g408
sg14
VIN
p409
sg16
Nsbag4
(g5
g6
Ntp410
Rp411
(dp412
g10
Vmartin
p413
sg12
VMartin
p414
sg14
VNNP
p415
sg16
Nsbag4
(g5
g6
Ntp416
Rp417
(dp418
g10
Vscorsese
p419
sg12
VScorsese
p420
sg14
VNNP
p421
sg16
Nsbasg33
S'moviesbydirector'
p422
sg35
I01
sa(dp423
g2
(lp424
g4
(g5
g6
Ntp425
Rp426
(dp427
g10
Vwhich
p428
sg12
g428
sg14
VWDT
p429
sg16
Nsbag4
(g5
g6
Ntp430
Rp431
(dp432
g10
Vmovie
p433
sg12
Vmovies
p434
sg14
VNNS
p435
sg16
Nsbag4
(g5
g6
Ntp436
Rp437
(dp438
g10
Vdo
p439
sg12
Vdid
p440
sg14
VVBD
p441
sg16
Nsbag4
(g5
g6
Ntp442
Rp443
(dp444
g10
Vmel
p445
sg12
VMel
p446
sg14
VNNP
p447
sg16
Nsbag4
(g5
g6
Ntp448
Rp449
(dp450
g10
Vgibson
p451
sg12
VGibson
p452
sg14
VNNP
p453
sg16
Nsbag4
(g5
g6
Ntp454
Rp455
(dp456
g10
Vdirect
p457
sg12
Vdirected
p458
sg14
VVBD
p459
sg16
Nsbasg33
S'moviesbydirector'
p460
sg35
I01
sa(dp461
g2
(lp462
g4
(g5
g6
Ntp463
Rp464
(dp465
g10
Vhow
p466
sg12
VHow
p467
sg14
VWRB
p468
sg16
Nsbag4
(g5
g6
Ntp469
Rp470
(dp471
g10
Vlong
p472
sg12
g472
sg14
VJJ
p473
sg16
Nsbag4
(g5
g6
Ntp474
Rp475
(dp476
g10
Vbe
p477
sg12
Vis
p478
sg14
VVBZ
p479
sg16
Nsbag4
(g5
g6
Ntp480
Rp481
(dp482
g10
Vpulp
p483
sg12
VPulp
p484
sg14
VNNP
p485
sg16
Nsbag4
(g5
g6
Ntp486
Rp487
(dp488
g10
Vfiction
p489
sg12
VFiction
p490
sg14
VNNP
p491
sg16
Nsbasg33
S'movieduration'
p492
sg35
I01
sa(dp493
g2
(lp494
g4
(g5
g6
Ntp495
Rp496
(dp497
g10
Vwhat
p498
sg12
VWhat
p499
sg14
VWP
p500
sg16
Nsbag4
(g5
g6
Ntp501
Rp502
(dp503
g10
Vbe
p504
sg12
Vis
p505
sg14
VVBZ
p506
sg16
Nsbag4
(g5
g6
Ntp507
Rp508
(dp509
g10
Vthe
p510
sg12
g510
sg14
VDT
p511
sg16
Nsbag4
(g5
g6
Ntp512
Rp513
(dp514
g10
Vduration
p515
sg12
g515
sg14
VNN
p516
sg16
Nsbag4
(g5
g6
Ntp517
Rp518
(dp519
g10
Vof
p520
sg12
g520
sg14
VIN
p521
sg16
Nsbag4
(g5
g6
Ntp522
Rp523
(dp524
g10
Vthe
p525
sg12
VThe
p526
sg14
VDT
p527
sg16
Nsbag4
(g5
g6
Ntp528
Rp529
(dp530
g10
Vthin
p531
sg12
VThin
p532
sg14
VNNP
p533
sg16
Nsbag4
(g5
g6
Ntp534
Rp535
(dp536
g10
Vred
p537
sg12
VRed
p538
sg14
VNNP
p539
sg16
Nsbag4
(g5
g6
Ntp540
Rp541
(dp542
g10
Vline
p543
sg12
VLine
p544
sg14
VNNP
p545
sg16
Nsbag4
(g5
g6
Ntp546
Rp547
(dp548
g10
g59
sg12
g59
sg14
g60
sg16
Nsbasg33
S'movieduration'
p549
sg35
I01
sa(dp550
g2
(lp551
g4
(g5
g6
Ntp552
Rp553
(dp554
g10
Vlist
p555
sg12
VList
p556
sg14
VNNP
p557
sg16
Nsbag4
(g5
g6
Ntp558
Rp559
(dp560
g10
Vmovie
p561
sg12
Vmovies
p562
sg14
VNNS
p563
sg16
Nsbag4
(g5
g6
Ntp564
Rp565
(dp566
g10
Vwith
p567
sg12
g567
sg14
VIN
p568
sg16
Nsbag4
(g5
g6
Ntp569
Rp570
(dp571
g10
Vhugh
p572
sg12
VHugh
p573
sg14
VNNP
p574
sg16
Nsbag4
(g5
g6
Ntp575
Rp576
(dp577
g10
Vlaurie
p578
sg12
VLaurie
p579
sg14
VNNP
p580
sg16
Nsbasg33
S'actedon'
p581
sg35
I01
sa(dp582
g2
(lp583
g4
(g5
g6
Ntp584
Rp585
(dp586
g10
Vmovies
p587
sg12
VMovies
p588
sg14
VNNS
p589
sg16
Nsbag4
(g5
g6
Ntp590
Rp591
(dp592
g10
Vwith
p593
sg12
g593
sg14
VIN
p594
sg16
Nsbag4
(g5
g6
Ntp595
Rp596
(dp597
g10
Vmatt
p598
sg12
VMatt
p599
sg14
VNNP
p600
sg16
Nsbag4
(g5
g6
Ntp601
Rp602
(dp603
g10
Vleblanc
p604
sg12
VLeBlanc
p605
sg14
VNNP
p606
sg16
Nsbasg33
S'actedon'
p607
sg35
I01
sa(dp608
g2
(lp609
g4
(g5
g6
Ntp610
Rp611
(dp612
g10
Vin
p613
sg12
VIn
p614
sg14
VIN
p615
sg16
Nsbag4
(g5
g6
Ntp616
Rp617
(dp618
g10
Vwhat
p619
sg12
g619
sg14
VWP
p620
sg16
Nsbag4
(g5
g6
Ntp621
Rp622
(dp623
g10
Vmovie
p624
sg12
Vmovies
p625
sg14
VNNS
p626
sg16
Nsbag4
(g5
g6
Ntp627
Rp628
(dp629
g10
Vdo
p630
sg12
Vdid
p631
sg14
VVBD
p632
sg16
Nsbag4
(g5
g6
Ntp633
Rp634
(dp635
g10
Vjennifer
p636
sg12
VJennifer
p637
sg14
VNNP
p638
sg16
Nsbag4
(g5
g6
Ntp639
Rp640
(dp641
g10
Vaniston
p642
sg12
VAniston
p643
sg14
VNNP
p644
sg16
Nsbag4
(g5
g6
Ntp645
Rp646
(dp647
g10
Vappear
p648
sg12
g648
sg14
VNN
p649
sg16
Nsbag4
(g5
g6
Ntp650
Rp651
(dp652
g10
g59
sg12
g59
sg14
g60
sg16
Nsbasg33
S'actedon'
p653
sg35
I01
sa(dp654
g2
(lp655
g4
(g5
g6
Ntp656
Rp657
(dp658
g10
Vwhich
p659
sg12
VWhich
p660
sg14
VWDT
p661
sg16
Nsbag4
(g5
g6
Ntp662
Rp663
(dp664
g10
Vmovie
p665
sg12
Vmovies
p666
sg14
VNNS
p667
sg16
Nsbag4
(g5
g6
Ntp668
Rp669
(dp670
g10
Vdo
p671
sg12
Vdid
p672
sg14
VVBD
p673
sg16
Nsbag4
(g5
g6
Ntp674
Rp675
(dp676
g10
Vmel
p677
sg12
VMel
p678
sg14
VNNP
p679
sg16
Nsbag4
(g5
g6
Ntp680
Rp681
(dp682
g10
Vgibson
p683
sg12
VGibson
p684
sg14
VNNP
p685
sg16
Nsbag4
(g5
g6
Ntp686
Rp687
(dp688
g10
Vstar
p689
sg12
Vstarred
p690
sg14
VVBD
p691
sg16
Nsbag4
(g5
g6
Ntp692
Rp693
(dp694
g10
g59
sg12
g59
sg14
g60
sg16
Nsbasg33
S'actedon'
p695
sg35
I01
sa(dp696
g2
(lp697
g4
(g5
g6
Ntp698
Rp699
(dp700
g10
Vmovies
p701
sg12
VMovies
p702
sg14
VNNS
p703
sg16
Nsbag4
(g5
g6
Ntp704
Rp705
(dp706
g10
Vstar
p707
sg12
Vstarring
p708
sg14
VVBG
p709
sg16
Nsbag4
(g5
g6
Ntp710
Rp711
(dp712
g10
Vwinona
p713
sg12
VWinona
p714
sg14
VNNP
p715
sg16
Nsbag4
(g5
g6
Ntp716
Rp717
(dp718
g10
Vryder
p719
sg12
VRyder
p720
sg14
VNNP
p721
sg16
Nsbasg33
S'actedon'
p722
sg35
I01
sa(dp723
g2
(lp724
g4
(g5
g6
Ntp725
Rp726
(dp727
g10
Vwhen
p728
sg12
g728
sg14
VWRB
p729
sg16
Nsbag4
(g5
g6
Ntp730
Rp731
(dp732
g10
Vbe
p733
sg12
Vwas
p734
sg14
VVBD
p735
sg16
Nsbag4
(g5
g6
Ntp736
Rp737
(dp738
g10
Vgravity
p739
sg12
g739
sg14
VNN
p740
sg16
Nsbag4
(g5
g6
Ntp741
Rp742
(dp743
g10
Vrelease
p744
sg12
Vreleased
p745
sg14
VVBN
p746
sg16
Nsbag4
(g5
g6
Ntp747
Rp748
(dp749
g10
g59
sg12
g59
sg14
g60
sg16
Nsbasg33
S'moviereleasedate'
p750
sg35
I01
sa(dp751
g2
(lp752
g4
(g5
g6
Ntp753
Rp754
(dp755
g10
Vrelease
p756
sg12
g756
sg14
VNN
p757
sg16
Nsbag4
(g5
g6
Ntp758
Rp759
(dp760
g10
Vdate
p761
sg12
g761
sg14
VNN
p762
sg16
Nsbag4
(g5
g6
Ntp763
Rp764
(dp765
g10
Vof
p766
sg12
g766
sg14
VIN
p767
sg16
Nsbag4
(g5
g6
Ntp768
Rp769
(dp770
g10
Vthe
p771
sg12
g771
sg14
VDT
p772
sg16
Nsbag4
(g5
g6
Ntp773
Rp774
(dp775
g10
Vhobbit
p776
sg12
g776
sg14
VNN
p777
sg16
Nsbag4
(g5
g6
Ntp778
Rp779
(dp780
g10
g59
sg12
g59
sg14
g60
sg16
Nsbasg33
S'moviereleasedate'
p781
sg35
I01
sa(dp782
g2
(lp783
g4
(g5
g6
Ntp784
Rp785
(dp786
g10
Vwho
p787
sg12
VWho
p788
sg14
VWP
p789
sg16
Nsbag4
(g5
g6
Ntp790
Rp791
(dp792
g10
Vbe
p793
sg12
Vis
p794
sg14
VVBZ
p795
sg16
Nsbag4
(g5
g6
Ntp796
Rp797
(dp798
g10
Vthe
p799
sg12
g799
sg14
VDT
p800
sg16
Nsbag4
(g5
g6
Ntp801
Rp802
(dp803
g10
Vdirector
p804
sg12
g804
sg14
VNN
p805
sg16
Nsbag4
(g5
g6
Ntp806
Rp807
(dp808
g10
Vof
p809
sg12
g809
sg14
VIN
p810
sg16
Nsbag4
(g5
g6
Ntp811
Rp812
(dp813
g10
Vbig
p814
sg12
VBig
p815
sg14
VNNP
p816
sg16
Nsbag4
(g5
g6
Ntp817
Rp818
(dp819
g10
Vfish
p820
sg12
VFish
p821
sg14
VNNP
p822
sg16
Nsbag4
(g5
g6
Ntp823
Rp824
(dp825
g10
g59
sg12
g59
sg14
g60
sg16
Nsbasg33
S'directorof'
p826
sg35
I01
sa(dp827
g2
(lp828
g4
(g5
g6
Ntp829
Rp830
(dp831
g10
Vwho
p832
sg12
g832
sg14
VWP
p833
sg16
Nsbag4
(g5
g6
Ntp834
Rp835
(dp836
g10
Vdirect
p837
sg12
Vdirected
p838
sg14
VVBN
p839
sg16
Nsbag4
(g5
g6
Ntp840
Rp841
(dp842
g10
Vpocahontas
p843
sg12
VPocahontas
p844
sg14
VNNP
p845
sg16
Nsbag4
(g5
g6
Ntp846
Rp847
(dp848
g10
g59
sg12
g59
sg14
g60
sg16
Nsbasg33
S'directorof'
p849
sg35
I01
sa(dp850
g2
(lp851
g4
(g5
g6
Ntp852
Rp853
(dp854
g10
Vwho
p855
sg12
g855
sg14
VWP
p856
sg16
Nsbag4
(g5
g6
Ntp857
Rp858
(dp859
g10
Vbe
p860
sg12
Vare
p861
sg14
VVBP
p862
sg16
Nsbag4
(g5
g6
Ntp863
Rp864
(dp865
g10
Vthe
p866
sg12
g866
sg14
VDT
p867
sg16
Nsbag4
(g5
g6
Ntp868
Rp869
(dp870
g10
Vactor
p871
sg12
Vactors
p872
sg14
VNNS
p873
sg16
Nsbag4
(g5
g6
Ntp874
Rp875
(dp876
g10
Vof
p877
sg12
g877
sg14
VIN
p878
sg16
Nsbag4
(g5
g6
Ntp879
Rp880
(dp881
g10
Vtitanic
p882
sg12
VTitanic
p883
sg14
VNNP
p884
sg16
Nsbag4
(g5
g6
Ntp885
Rp886
(dp887
g10
g59
sg12
g59
sg14
g60
sg16
Nsbasg33
S'actorsof'
p888
sg35
I01
sa(dp889
g2
(lp890
g4
(g5
g6
Ntp891
Rp892
(dp893
g10
Vwho
p894
sg12
g894
sg14
VWP
p895
sg16
Nsbag4
(g5
g6
Ntp896
Rp897
(dp898
g10
Vact
p899
sg12
Vacted
p900
sg14
VVBN
p901
sg16
Nsbag4
(g5
g6
Ntp902
Rp903
(dp904
g10
Vin
p905
sg12
g905
sg14
VIN
p906
sg16
Nsbag4
(g5
g6
Ntp907
Rp908
(dp909
g10
Valien
p910
sg12
VAlien
p911
sg14
VNNP
p912
sg16
Nsbag4
(g5
g6
Ntp913
Rp914
(dp915
g10
g59
sg12
g59
sg14
g60
sg16
Nsbasg33
S'actorsof'
p916
sg35
I01
sa(dp917
g2
(lp918
g4
(g5
g6
Ntp919
Rp920
(dp921
g10
Vwho
p922
sg12
g922
sg14
VWP
p923
sg16
Nsbag4
(g5
g6
Ntp924
Rp925
(dp926
g10
Vstar
p927
sg12
Vstarred
p928
sg14
VVBN
p929
sg16
Nsbag4
(g5
g6
Ntp930
Rp931
(dp932
g10
Vin
p933
sg12
g933
sg14
VIN
p934
sg16
Nsbag4
(g5
g6
Ntp935
Rp936
(dp937
g10
Vdepredator
p938
sg12
VDepredator
p939
sg14
VNNP
p940
sg16
Nsbag4
(g5
g6
Ntp941
Rp942
(dp943
g10
g59
sg12
g59
sg14
g60
sg16
Nsbasg33
S'actorsof'
p944
sg35
I01
sa(dp945
g2
(lp946
g4
(g5
g6
Ntp947
Rp948
(dp949
g10
Vactors
p950
sg12
VActors
p951
sg14
VNNS
p952
sg16
Nsbag4
(g5
g6
Ntp953
Rp954
(dp955
g10
Vof
p956
sg12
g956
sg14
VIN
p957
sg16
Nsbag4
(g5
g6
Ntp958
Rp959
(dp960
g10
Vfight
p961
sg12
VFight
p962
sg14
VNNP
p963
sg16
Nsbag4
(g5
g6
Ntp964
Rp965
(dp966
g10
Vclub
p967
sg12
VClub
p968
sg14
VNNP
p969
sg16
Nsbasg33
S'actorsof'
p970
sg35
I01
sa(dp971
g2
(lp972
g4
(g5
g6
Ntp973
Rp974
(dp975
g10
Vwhat
p976
sg12
g976
sg14
VWP
p977
sg16
Nsbag4
(g5
g6
Ntp978
Rp979
(dp980
g10
Vbe
p981
sg12
Vis
p982
sg14
VVBZ
p983
sg16
Nsbag4
(g5
g6
Ntp984
Rp985
(dp986
g10
Vthe
p987
sg12
g987
sg14
VDT
p988
sg16
Nsbag4
(g5
g6
Ntp989
Rp990
(dp991
g10
Vplot
p992
sg12
g992
sg14
VNN
p993
sg16
Nsbag4
(g5
g6
Ntp994
Rp995
(dp996
g10
Vof
p997
sg12
g997
sg14
VIN
p998
sg16
Nsbag4
(g5
g6
Ntp999
Rp1000
(dp1001
g10
Vtitanic
p1002
sg12
VTitanic
p1003
sg14
VNNP
p1004
sg16
Nsbasg33
S'plotof'
p1005
sg35
I01
sa(dp1006
g2
(lp1007
g4
(g5
g6
Ntp1008
Rp1009
(dp1010
g10
Vwhat
p1011
sg12
g1011
sg14
VWP
p1012
sg16
Nsbag4
(g5
g6
Ntp1013
Rp1014
(dp1015
g10
Vbe
p1016
sg12
Vwas
p1017
sg14
VVBD
p1018
sg16
Nsbag4
(g5
g6
Ntp1019
Rp1020
(dp1021
g10
Vsherk
p1022
sg12
VSherk
p1023
sg14
VNNP
p1024
sg16
Nsbag4
(g5
g6
Ntp1025
Rp1026
(dp1027
g10
Vabout
p1028
sg12
g1028
sg14
VIN
p1029
sg16
Nsbag4
(g5
g6
Ntp1030
Rp1031
(dp1032
g10
g59
sg12
g59
sg14
g60
sg16
Nsbasg33
S'plotof'
p1033
sg35
I01
sa(dp1034
g2
(lp1035
g4
(g5
g6
Ntp1036
Rp1037
(dp1038
g10
Vradiohead
p1039
sg12
VRadiohead
p1040
sg14
VNNP
p1041
sg16
Nsbag4
(g5
g6
Ntp1042
Rp1043
(dp1044
g10
Vmember
p1045
sg12
Vmembers
p1046
sg14
VNNS
p1047
sg16
Nsbasg33
S'bandmembers'
p1048
sg35
I01
sa(dp1049
g2
(lp1050
g4
(g5
g6
Ntp1051
Rp1052
(dp1053
g10
Vwhat
p1054
sg12
VWhat
p1055
sg14
VWP
p1056
sg16
Nsbag4
(g5
g6
Ntp1057
Rp1058
(dp1059
g10
Vbe
p1060
sg12
Vare
p1061
sg14
VVBP
p1062
sg16
Nsbag4
(g5
g6
Ntp1063
Rp1064
(dp1065
g10
Vthe
p1066
sg12
g1066
sg14
VDT
p1067
sg16
Nsbag4
(g5
g6
Ntp1068
Rp1069
(dp1070
g10
Vmember
p1071
sg12
Vmembers
p1072
sg14
VNNS
p1073
sg16
Nsbag4
(g5
g6
Ntp1074
Rp1075
(dp1076
g10
Vof
p1077
sg12
g1077
sg14
VIN
p1078
sg16
Nsbag4
(g5
g6
Ntp1079
Rp1080
(dp1081
g10
Vmetallica
p1082
sg12
VMetallica
p1083
sg14
VNNP
p1084
sg16
Nsbag4
(g5
g6
Ntp1085
Rp1086
(dp1087
g10
g59
sg12
g59
sg14
g60
sg16
Nsbasg33
S'bandmembers'
p1088
sg35
I01
sa(dp1089
g2
(lp1090
g4
(g5
g6
Ntp1091
Rp1092
(dp1093
g10
Vwho
p1094
sg12
g1094
sg14
VWP
p1095
sg16
Nsbag4
(g5
g6
Ntp1096
Rp1097
(dp1098
g10
Vbe
p1099
sg12
Vwere
p1100
sg14
VVBD
p1101
sg16
Nsbag4
(g5
g6
Ntp1102
Rp1103
(dp1104
g10
Vthe
p1105
sg12
g1105
sg14
VDT
p1106
sg16
Nsbag4
(g5
g6
Ntp1107
Rp1108
(dp1109
g10
Vmember
p1110
sg12
Vmembers
p1111
sg14
VNNS
p1112
sg16
Nsbag4
(g5
g6
Ntp1113
Rp1114
(dp1115
g10
Vof
p1116
sg12
g1116
sg14
VIN
p1117
sg16
Nsbag4
(g5
g6
Ntp1118
Rp1119
(dp1120
g10
Vpink
p1121
sg12
g1121
sg14
VNN
p1122
sg16
Nsbag4
(g5
g6
Ntp1123
Rp1124
(dp1125
g10
Vfloyd
p1126
sg12
g1126
sg14
VNN
p1127
sg16
Nsbag4
(g5
g6
Ntp1128
Rp1129
(dp1130
g10
g59
sg12
g59
sg14
g60
sg16
Nsbasg33
S'bandmembers'
p1131
sg35
I01
sa(dp1132
g2
(lp1133
g4
(g5
g6
Ntp1134
Rp1135
(dp1136
g10
Vwhen
p1137
sg12
VWhen
p1138
sg14
VWRB
p1139
sg16
Nsbag4
(g5
g6
Ntp1140
Rp1141
(dp1142
g10
Vbe
p1143
sg12
Vwas
p1144
sg14
VVBD
p1145
sg16
Nsbag4
(g5
g6
Ntp1146
Rp1147
(dp1148
g10
Vkorn
p1149
sg12
VKorn
p1150
sg14
VNNP
p1151
sg16
Nsbag4
(g5
g6
Ntp1152
Rp1153
(dp1154
g10
Vform
p1155
sg12
Vformed
p1156
sg14
VVBN
p1157
sg16
Nsbag4
(g5
g6
Ntp1158
Rp1159
(dp1160
g10
g59
sg12
g59
sg14
g60
sg16
Nsbasg33
S'bandfoundation'
p1161
sg35
I01
sa(dp1162
g2
(lp1163
g4
(g5
g6
Ntp1164
Rp1165
(dp1166
g10
Vwhat
p1167
sg12
VWhat
p1168
sg14
VWP
p1169
sg16
Nsbag4
(g5
g6
Ntp1170
Rp1171
(dp1172
g10
Vbe
p1173
sg12
Vis
p1174
sg14
VVBZ
p1175
sg16
Nsbag4
(g5
g6
Ntp1176
Rp1177
(dp1178
g10
Vthe
p1179
sg12
g1179
sg14
VDT
p1180
sg16
Nsbag4
(g5
g6
Ntp1181
Rp1182
(dp1183
g10
Vmusic
p1184
sg12
g1184
sg14
VJJ
p1185
sg16
Nsbag4
(g5
g6
Ntp1186
Rp1187
(dp1188
g10
Vgenre
p1189
sg12
g1189
sg14
VNN
p1190
sg16
Nsbag4
(g5
g6
Ntp1191
Rp1192
(dp1193
g10
Vof
p1194
sg12
g1194
sg14
VIN
p1195
sg16
Nsbag4
(g5
g6
Ntp1196
Rp1197
(dp1198
g10
Vgorillaz
p1199
sg12
VGorillaz
p1200
sg14
VNNP
p1201
sg16
Nsbag4
(g5
g6
Ntp1202
Rp1203
(dp1204
g10
g59
sg12
g59
sg14
g60
sg16
Nsbasg33
S'musicgenre'
p1205
sg35
I01
sa(dp1206
g2
(lp1207
g4
(g5
g6
Ntp1208
Rp1209
(dp1210
g10
Vmusic
p1211
sg12
VMusic
p1212
sg14
VNNP
p1213
sg16
Nsbag4
(g5
g6
Ntp1214
Rp1215
(dp1216
g10
Vgenre
p1217
sg12
g1217
sg14
VVBD
p1218
sg16
Nsbag4
(g5
g6
Ntp1219
Rp1220
(dp1221
g10
Vof
p1222
sg12
g1222
sg14
VIN
p1223
sg16
Nsbag4
(g5
g6
Ntp1224
Rp1225
(dp1226
g10
Vradiohead
p1227
sg12
VRadiohead
p1228
sg14
VNNP
p1229
sg16
Nsbasg33
S'musicgenre'
p1230
sg35
I01
sa(dp1231
g2
(lp1232
g4
(g5
g6
Ntp1233
Rp1234
(dp1235
g10
Vlist
p1236
sg12
VList
p1237
sg14
VNNP
p1238
sg16
Nsbag4
(g5
g6
Ntp1239
Rp1240
(dp1241
g10
Valbum
p1242
sg12
Valbums
p1243
sg14
VNNS
p1244
sg16
Nsbag4
(g5
g6
Ntp1245
Rp1246
(dp1247
g10
Vof
p1248
sg12
g1248
sg14
VIN
p1249
sg16
Nsbag4
(g5
g6
Ntp1250
Rp1251
(dp1252
g10
Vpink
p1253
sg12
VPink
p1254
sg14
VNNP
p1255
sg16
Nsbag4
(g5
g6
Ntp1256
Rp1257
(dp1258
g10
Vfloyd
p1259
sg12
VFloyd
p1260
sg14
VNNP
p1261
sg16
Nsbasg33
S'albumsofband'
p1262
sg35
I01
sa(dp1263
g2
(lp1264
g4
(g5
g6
Ntp1265
Rp1266
(dp1267
g10
Vwhat
p1268
sg12
VWhat
p1269
sg14
VWP
p1270
sg16
Nsbag4
(g5
g6
Ntp1271
Rp1272
(dp1273
g10
Valbum
p1274
sg12
Valbums
p1275
sg14
VNNS
p1276
sg16
Nsbag4
(g5
g6
Ntp1277
Rp1278
(dp1279
g10
Vdo
p1280
sg12
Vdid
p1281
sg14
VVBD
p1282
sg16
Nsbag4
(g5
g6
Ntp1283
Rp1284
(dp1285
g10
Vpearl
p1286
sg12
VPearl
p1287
sg14
VNNP
p1288
sg16
Nsbag4
(g5
g6
Ntp1289
Rp1290
(dp1291
g10
Vjam
p1292
sg12
VJam
p1293
sg14
VNNP
p1294
sg16
Nsbag4
(g5
g6
Ntp1295
Rp1296
(dp1297
g10
Vrecord
p1298
sg12
g1298
sg14
VNN
p1299
sg16
Nsbag4
(g5
g6
Ntp1300
Rp1301
(dp1302
g10
g59
sg12
g59
sg14
g60
sg16
Nsbasg33
S'albumsofband'
p1303
sg35
I01
sa(dp1304
g2
(lp1305
g4
(g5
g6
Ntp1306
Rp1307
(dp1308
g10
Valbums
p1309
sg12
VAlbums
p1310
sg14
VNNS
p1311
sg16
Nsbag4
(g5
g6
Ntp1312
Rp1313
(dp1314
g10
Vby
p1315
sg12
g1315
sg14
VIN
p1316
sg16
Nsbag4
(g5
g6
Ntp1317
Rp1318
(dp1319
g10
Vmetallica
p1320
sg12
VMetallica
p1321
sg14
VNNP
p1322
sg16
Nsbasg33
S'albumsofband'
p1323
sg35
I01
sa(dp1324
g2
(lp1325
g4
(g5
g6
Ntp1326
Rp1327
(dp1328
g10
Vwhat
p1329
sg12
g1329
sg14
VWP
p1330
sg16
Nsbag4
(g5
g6
Ntp1331
Rp1332
(dp1333
g10
Valbum
p1334
sg12
Valbums
p1335
sg14
VNNS
p1336
sg16
Nsbag4
(g5
g6
Ntp1337
Rp1338
(dp1339
g10
Vdo
p1340
sg12
Vdid
p1341
sg14
VVBD
p1342
sg16
Nsbag4
(g5
g6
Ntp1343
Rp1344
(dp1345
g10
Vthe
p1346
sg12
VThe
p1347
sg14
VDT
p1348
sg16
Nsbag4
(g5
g6
Ntp1349
Rp1350
(dp1351
g10
Vbeatles
p1352
sg12
VBeatles
p1353
sg14
VNNP
p1354
sg16
Nsbag4
(g5
g6
Ntp1355
Rp1356
(dp1357
g10
Vmake
p1358
sg12
g1358
sg14
VVBP
p1359
sg16
Nsbag4
(g5
g6
Ntp1360
Rp1361
(dp1362
g10
g59
sg12
g59
sg14
g60
sg16
Nsbasg33
S'albumsofband'
p1363
sg35
I01
sa(dp1364
g2
(lp1365
g4
(g5
g6
Ntp1366
Rp1367
(dp1368
g10
Vwho
p1369
sg12
VWho
p1370
sg14
VWP
p1371
sg16
Nsbag4
(g5
g6
Ntp1372
Rp1373
(dp1374
g10
Vbe
p1375
sg12
Vis
p1376
sg14
VVBZ
p1377
sg16
Nsbag4
(g5
g6
Ntp1378
Rp1379
(dp1380
g10
Vtom
p1381
sg12
VTom
p1382
sg14
VNNP
p1383
sg16
Nsbag4
(g5
g6
Ntp1384
Rp1385
(dp1386
g10
Vcruise
p1387
sg12
VCruise
p1388
sg14
VNNP
p1389
sg16
Nsbag4
(g5
g6
Ntp1390
Rp1391
(dp1392
g10
g59
sg12
g59
sg14
g60
sg16
Nsbasg33
S'whois'
p1393
sg35
I01
sa(dp1394
g2
(lp1395
g4
(g5
g6
Ntp1396
Rp1397
(dp1398
g10
Vhow
p1399
sg12
VHow
p1400
sg14
VWRB
p1401
sg16
Nsbag4
(g5
g6
Ntp1402
Rp1403
(dp1404
g10
Vold
p1405
sg12
g1405
sg14
VJJ
p1406
sg16
Nsbag4
(g5
g6
Ntp1407
Rp1408
(dp1409
g10
Vbe
p1410
sg12
Vis
p1411
sg14
VVBZ
p1412
sg16
Nsbag4
(g5
g6
Ntp1413
Rp1414
(dp1415
g10
Vbob
p1416
sg12
VBob
p1417
sg14
VNNP
p1418
sg16
Nsbag4
(g5
g6
Ntp1419
Rp1420
(dp1421
g10
Vdylan
p1422
sg12
VDylan
p1423
sg14
VNNP
p1424
sg16
Nsbasg33
S'howoldis'
p1425
sg35
I01
sa(dp1426
g2
(lp1427
g4
(g5
g6
Ntp1428
Rp1429
(dp1430
g10
Vwhere
p1431
sg12
VWhere
p1432
sg14
VWRB
p1433
sg16
Nsbag4
(g5
g6
Ntp1434
Rp1435
(dp1436
g10
Vbe
p1437
sg12
Vis
p1438
sg14
VVBZ
p1439
sg16
Nsbag4
(g5
g6
Ntp1440
Rp1441
(dp1442
g10
Vbill
p1443
sg12
VBill
p1444
sg14
VNNP
p1445
sg16
Nsbag4
(g5
g6
Ntp1446
Rp1447
(dp1448
g10
Vgates
p1449
sg12
VGates
p1450
sg14
VNNP
p1451
sg16
Nsbag4
(g5
g6
Ntp1452
Rp1453
(dp1454
g10
Vfrom
p1455
sg12
g1455
sg14
VIN
p1456
sg16
Nsbag4
(g5
g6
Ntp1457
Rp1458
(dp1459
g10
g59
sg12
g59
sg14
g60
sg16
Nsbasg33
S'whereisfrom'
p1460
sg35
I01
sa(dp1461
g2
(lp1462
g4
(g5
g6
Ntp1463
Rp1464
(dp1465
g10
Vwhat
p1466
sg12
VWhat
p1467
sg14
VWP
p1468
sg16
Nsbag4
(g5
g6
Ntp1469
Rp1470
(dp1471
g10
Vbe
p1472
sg12
Vis
p1473
sg14
VVBZ
p1474
sg16
Nsbag4
(g5
g6
Ntp1475
Rp1476
(dp1477
g10
Vthe
p1478
sg12
g1478
sg14
VDT
p1479
sg16
Nsbag4
(g5
g6
Ntp1480
Rp1481
(dp1482
g10
Vcast
p1483
sg12
g1483
sg14
VNN
p1484
sg16
Nsbag4
(g5
g6
Ntp1485
Rp1486
(dp1487
g10
Vof
p1488
sg12
g1488
sg14
VIN
p1489
sg16
Nsbag4
(g5
g6
Ntp1490
Rp1491
(dp1492
g10
Vfriends
p1493
sg12
VFriends
p1494
sg14
VNNPS
p1495
sg16
Nsbag4
(g5
g6
Ntp1496
Rp1497
(dp1498
g10
g59
sg12
g59
sg14
g60
sg16
Nsbasg33
S'castof'
p1499
sg35
I01
sa(dp1500
g2
(lp1501
g4
(g5
g6
Ntp1502
Rp1503
(dp1504
g10
Vwho
p1505
sg12
VWho
p1506
sg14
VWP
p1507
sg16
Nsbag4
(g5
g6
Ntp1508
Rp1509
(dp1510
g10
Vworks
p1511
sg12
g1511
sg14
VNNS
p1512
sg16
Nsbag4
(g5
g6
Ntp1513
Rp1514
(dp1515
g10
Vin
p1516
sg12
g1516
sg14
VIN
p1517
sg16
Nsbag4
(g5
g6
Ntp1518
Rp1519
(dp1520
g10
Vbreaking
p1521
sg12
VBreaking
p1522
sg14
VNNP
p1523
sg16
Nsbag4
(g5
g6
Ntp1524
Rp1525
(dp1526
g10
Vbad
p1527
sg12
VBad
p1528
sg14
VNNP
p1529
sg16
Nsbag4
(g5
g6
Ntp1530
Rp1531
(dp1532
g10
g59
sg12
g59
sg14
g60
sg16
Nsbasg33
S'castof'
p1533
sg35
I01
sa(dp1534
g2
(lp1535
g4
(g5
g6
Ntp1536
Rp1537
(dp1538
g10
Vlist
p1539
sg12
VList
p1540
sg14
VNNP
p1541
sg16
Nsbag4
(g5
g6
Ntp1542
Rp1543
(dp1544
g10
Vactor
p1545
sg12
Vactors
p1546
sg14
VNNS
p1547
sg16
Nsbag4
(g5
g6
Ntp1548
Rp1549
(dp1550
g10
Vof
p1551
sg12
g1551
sg14
VIN
p1552
sg16
Nsbag4
(g5
g6
Ntp1553
Rp1554
(dp1555
g10
Vseinfeld
p1556
sg12
VSeinfeld
p1557
sg14
VNNP
p1558
sg16
Nsbasg33
S'castof'
p1559
sg35
I01
sa(dp1560
g2
(lp1561
g4
(g5
g6
Ntp1562
Rp1563
(dp1564
g10
Vlist
p1565
sg12
VList
p1566
sg14
VNNP
p1567
sg16
Nsbag4
(g5
g6
Ntp1568
Rp1569
(dp1570
g10
Vtv
p1571
sg12
VTV
p1572
sg14
VNN
p1573
sg16
Nsbag4
(g5
g6
Ntp1574
Rp1575
(dp1576
g10
Vshow
p1577
sg12
Vshows
p1578
sg14
VVBZ
p1579
sg16
Nsbasg33
S'listtvshows'
p1580
sg35
I01
sa(dp1581
g2
(lp1582
g4
(g5
g6
Ntp1583
Rp1584
(dp1585
g10
Vhow
p1586
sg12
VHow
p1587
sg14
VWRB
p1588
sg16
Nsbag4
(g5
g6
Ntp1589
Rp1590
(dp1591
g10
Vmany
p1592
sg12
g1592
sg14
VJJ
p1593
sg16
Nsbag4
(g5
g6
Ntp1594
Rp1595
(dp1596
g10
Vepisode
p1597
sg12
Vepisodes
p1598
sg14
VNNS
p1599
sg16
Nsbag4
(g5
g6
Ntp1600
Rp1601
(dp1602
g10
Vdo
p1603
sg12
Vdoes
p1604
sg14
VVBZ
p1605
sg16
Nsbag4
(g5
g6
Ntp1606
Rp1607
(dp1608
g10
Vseinfeld
p1609
sg12
VSeinfeld
p1610
sg14
VNNP
p1611
sg16
Nsbag4
(g5
g6
Ntp1612
Rp1613
(dp1614
g10
Vhave
p1615
sg12
g1615
sg14
VVB
p1616
sg16
Nsbag4
(g5
g6
Ntp1617
Rp1618
(dp1619
g10
g59
sg12
g59
sg14
g60
sg16
Nsbasg33
S'episodecount'
p1620
sg35
I01
sa(dp1621
g2
(lp1622
g4
(g5
g6
Ntp1623
Rp1624
(dp1625
g10
Vnumber
p1626
sg12
VNumber
p1627
sg14
VNNP
p1628
sg16
Nsbag4
(g5
g6
Ntp1629
Rp1630
(dp1631
g10
Vof
p1632
sg12
g1632
sg14
VIN
p1633
sg16
Nsbag4
(g5
g6
Ntp1634
Rp1635
(dp1636
g10
Vepisode
p1637
sg12
Vepisodes
p1638
sg14
VNNS
p1639
sg16
Nsbag4
(g5
g6
Ntp1640
Rp1641
(dp1642
g10
Vof
p1643
sg12
g1643
sg14
VIN
p1644
sg16
Nsbag4
(g5
g6
Ntp1645
Rp1646
(dp1647
g10
Vseinfeld
p1648
sg12
VSeinfeld
p1649
sg14
VNNP
p1650
sg16
Nsbasg33
S'episodecount'
p1651
sg35
I01
sa(dp1652
g2
(lp1653
g4
(g5
g6
Ntp1654
Rp1655
(dp1656
g10
Vlist
p1657
sg12
VList
p1658
sg14
VNNP
p1659
sg16
Nsbag4
(g5
g6
Ntp1660
Rp1661
(dp1662
g10
Vshow
p1663
sg12
Vshows
p1664
sg14
VVBZ
p1665
sg16
Nsbag4
(g5
g6
Ntp1666
Rp1667
(dp1668
g10
Vwith
p1669
sg12
g1669
sg14
VIN
p1670
sg16
Nsbag4
(g5
g6
Ntp1671
Rp1672
(dp1673
g10
Vhugh
p1674
sg12
VHugh
p1675
sg14
VNNP
p1676
sg16
Nsbag4
(g5
g6
Ntp1677
Rp1678
(dp1679
g10
Vlaurie
p1680
sg12
VLaurie
p1681
sg14
VNNP
p1682
sg16
Nsbasg33
S'showswith'
p1683
sg35
I01
sa(dp1684
g2
(lp1685
g4
(g5
g6
Ntp1686
Rp1687
(dp1688
g10
Vin
p1689
sg12
VIn
p1690
sg14
VIN
p1691
sg16
Nsbag4
(g5
g6
Ntp1692
Rp1693
(dp1694
g10
Vwhat
p1695
sg12
g1695
sg14
VWP
p1696
sg16
Nsbag4
(g5
g6
Ntp1697
Rp1698
(dp1699
g10
Vshow
p1700
sg12
Vshows
p1701
sg14
VNNS
p1702
sg16
Nsbag4
(g5
g6
Ntp1703
Rp1704
(dp1705
g10
Vdo
p1706
sg12
Vdoes
p1707
sg14
VVBZ
p1708
sg16
Nsbag4
(g5
g6
Ntp1709
Rp1710
(dp1711
g10
Vjennifer
p1712
sg12
VJennifer
p1713
sg14
VNNP
p1714
sg16
Nsbag4
(g5
g6
Ntp1715
Rp1716
(dp1717
g10
Vaniston
p1718
sg12
VAniston
p1719
sg14
VNNP
p1720
sg16
Nsbag4
(g5
g6
Ntp1721
Rp1722
(dp1723
g10
Vappear
p1724
sg12
Vappears
p1725
sg14
VVBZ
p1726
sg16
Nsbag4
(g5
g6
Ntp1727
Rp1728
(dp1729
g10
g59
sg12
g59
sg14
g60
sg16
Nsbasg33
S'showswith'
p1730
sg35
I01
sa(dp1731
g2
(lp1732
g4
(g5
g6
Ntp1733
Rp1734
(dp1735
g10
Vshows
p1736
sg12
VShows
p1737
sg14
VNNS
p1738
sg16
Nsbag4
(g5
g6
Ntp1739
Rp1740
(dp1741
g10
Vwith
p1742
sg12
g1742
sg14
VIN
p1743
sg16
Nsbag4
(g5
g6
Ntp1744
Rp1745
(dp1746
g10
Vmatt
p1747
sg12
VMatt
p1748
sg14
VNNP
p1749
sg16
Nsbag4
(g5
g6
Ntp1750
Rp1751
(dp1752
g10
Vleblanc
p1753
sg12
VLeBlanc
p1754
sg14
VNNP
p1755
sg16
Nsbasg33
S'showswith'
p1756
sg35
I01
sa(dp1757
g2
(lp1758
g4
(g5
g6
Ntp1759
Rp1760
(dp1761
g10
Vwho
p1762
sg12
VWho
p1763
sg14
VWP
p1764
sg16
Nsbag4
(g5
g6
Ntp1765
Rp1766
(dp1767
g10
Vbe
p1768
sg12
Vis
p1769
sg14
VVBZ
p1770
sg16
Nsbag4
(g5
g6
Ntp1771
Rp1772
(dp1773
g10
Vthe
p1774
sg12
g1774
sg14
VDT
p1775
sg16
Nsbag4
(g5
g6
Ntp1776
Rp1777
(dp1778
g10
Vcreator
p1779
sg12
g1779
sg14
VNN
p1780
sg16
Nsbag4
(g5
g6
Ntp1781
Rp1782
(dp1783
g10
Vof
p1784
sg12
g1784
sg14
VIN
p1785
sg16
Nsbag4
(g5
g6
Ntp1786
Rp1787
(dp1788
g10
Vbreaking
p1789
sg12
VBreaking
p1790
sg14
VNNP
p1791
sg16
Nsbag4
(g5
g6
Ntp1792
Rp1793
(dp1794
g10
Vbad
p1795
sg12
VBad
p1796
sg14
VNNP
p1797
sg16
Nsbag4
(g5
g6
Ntp1798
Rp1799
(dp1800
g10
g59
sg12
g59
sg14
g60
sg16
Nsbasg33
S'creatorof'
p1801
sg35
I01
sa(dp1802
g2
(lp1803
g4
(g5
g6
Ntp1804
Rp1805
(dp1806
g10
Vwho
p1807
sg12
VWho
p1808
sg14
VWP
p1809
sg16
Nsbag4
(g5
g6
Ntp1810
Rp1811
(dp1812
g10
Vbe
p1813
sg12
Vare
p1814
sg14
VVBP
p1815
sg16
Nsbag4
(g5
g6
Ntp1816
Rp1817
(dp1818
g10
Vthe
p1819
sg12
g1819
sg14
VDT
p1820
sg16
Nsbag4
(g5
g6
Ntp1821
Rp1822
(dp1823
g10
Vcreator
p1824
sg12
Vcreators
p1825
sg14
VNNS
p1826
sg16
Nsbag4
(g5
g6
Ntp1827
Rp1828
(dp1829
g10
Vof
p1830
sg12
g1830
sg14
VIN
p1831
sg16
Nsbag4
(g5
g6
Ntp1832
Rp1833
(dp1834
g10
Vfriends
p1835
sg12
VFriends
p1836
sg14
VNNPS
p1837
sg16
Nsbag4
(g5
g6
Ntp1838
Rp1839
(dp1840
g10
g59
sg12
g59
sg14
g60
sg16
Nsbasg33
S'creatorof'
p1841
sg35
I01
sa(dp1842
g2
(lp1843
g4
(g5
g6
Ntp1844
Rp1845
(dp1846
g10
Vwho
p1847
sg12
g1847
sg14
VWP
p1848
sg16
Nsbag4
(g5
g6
Ntp1849
Rp1850
(dp1851
g10
Vwrite
p1852
sg12
Vwrote
p1853
sg14
VVBD
p1854
sg16
Nsbag4
(g5
g6
Ntp1855
Rp1856
(dp1857
g10
Vthe
p1858
sg12
VThe
p1859
sg14
VDT
p1860
sg16
Nsbag4
(g5
g6
Ntp1861
Rp1862
(dp1863
g10
Vlittle
p1864
sg12
VLittle
p1865
sg14
VNNP
p1866
sg16
Nsbag4
(g5
g6
Ntp1867
Rp1868
(dp1869
g10
Vprince
p1870
sg12
VPrince
p1871
sg14
VNNP
p1872
sg16
Nsbag4
(g5
g6
Ntp1873
Rp1874
(dp1875
g10
g59
sg12
g59
sg14
g60
sg16
Nsbasg33
S'whowrote'
p1876
sg35
I01
sa(dp1877
g2
(lp1878
g4
(g5
g6
Ntp1879
Rp1880
(dp1881
g10
Vwho
p1882
sg12
g1882
sg14
VWP
p1883
sg16
Nsbag4
(g5
g6
Ntp1884
Rp1885
(dp1886
g10
Vbe
p1887
sg12
Vis
p1888
sg14
VVBZ
p1889
sg16
Nsbag4
(g5
g6
Ntp1890
Rp1891
(dp1892
g10
Vthe
p1893
sg12
g1893
sg14
VDT
p1894
sg16
Nsbag4
(g5
g6
Ntp1895
Rp1896
(dp1897
g10
Vauthor
p1898
sg12
g1898
sg14
VNN
p1899
sg16
Nsbag4
(g5
g6
Ntp1900
Rp1901
(dp1902
g10
Vof
p1903
sg12
g1903
sg14
VIN
p1904
sg16
Nsbag4
(g5
g6
Ntp1905
Rp1906
(dp1907
g10
Va
p1908
sg12
VA
p1909
sg14
VDT
p1910
sg16
Nsbag4
(g5
g6
Ntp1911
Rp1912
(dp1913
g10
Vgame
p1914
sg12
VGame
p1915
sg14
VNNP
p1916
sg16
Nsbag4
(g5
g6
Ntp1917
Rp1918
(dp1919
g10
Vof
p1920
sg12
VOf
p1921
sg14
VNNP
p1922
sg16
Nsbag4
(g5
g6
Ntp1923
Rp1924
(dp1925
g10
Vthrones
p1926
sg12
VThrones
p1927
sg14
VNNP
p1928
sg16
Nsbag4
(g5
g6
Ntp1929
Rp1930
(dp1931
g10
g59
sg12
g59
sg14
g60
sg16
Nsbasg33
S'whowrote'
p1932
sg35
I01
sa(dp1933
g2
(lp1934
g4
(g5
g6
Ntp1935
Rp1936
(dp1937
g10
Vlist
p1938
sg12
g1938
sg14
VNN
p1939
sg16
Nsbag4
(g5
g6
Ntp1940
Rp1941
(dp1942
g10
Vbook
p1943
sg12
Vbooks
p1944
sg14
VNNS
p1945
sg16
Nsbag4
(g5
g6
Ntp1946
Rp1947
(dp1948
g10
Vby
p1949
sg12
g1949
sg14
VIN
p1950
sg16
Nsbag4
(g5
g6
Ntp1951
Rp1952
(dp1953
g10
Vgeorge
p1954
sg12
VGeorge
p1955
sg14
VNNP
p1956
sg16
Nsbag4
(g5
g6
Ntp1957
Rp1958
(dp1959
g10
Vorwell
p1960
sg12
VOrwell
p1961
sg14
VNNP
p1962
sg16
Nsbasg33
S'booksbyauthor'
p1963
sg35
I01
sa(dp1964
g2
(lp1965
g4
(g5
g6
Ntp1966
Rp1967
(dp1968
g10
Vwhich
p1969
sg12
g1969
sg14
VWDT
p1970
sg16
Nsbag4
(g5
g6
Ntp1971
Rp1972
(dp1973
g10
Vbook
p1974
sg12
Vbooks
p1975
sg14
VNNS
p1976
sg16
Nsbag4
(g5
g6
Ntp1977
Rp1978
(dp1979
g10
Vdo
p1980
sg12
Vdid
p1981
sg14
VVBD
p1982
sg16
Nsbag4
(g5
g6
Ntp1983
Rp1984
(dp1985
g10
Vsuzanne
p1986
sg12
VSuzanne
p1987
sg14
VNNP
p1988
sg16
Nsbag4
(g5
g6
Ntp1989
Rp1990
(dp1991
g10
Vcollins
p1992
sg12
VCollins
p1993
sg14
VNNP
p1994
sg16
Nsbag4
(g5
g6
Ntp1995
Rp1996
(dp1997
g10
Vwrite
p1998
sg12
Vwrote
p1999
sg14
VVBD
p2000
sg16
Nsbag4
(g5
g6
Ntp2001
Rp2002
(dp2003
g10
g59
sg12
g59
sg14
g60
sg16
Nsbasg33
S'booksbyauthor'
p2004
sg35
I01
sa(dp2005
g2
(lp2006
g4
(g5
g6
Ntp2007
Rp2008
(dp2009
g10
Von
p2010
sg12
VOn
p2011
sg14
VIN
p2012
sg16
Nsbag4
(g5
g6
Ntp2013
Rp2014
(dp2015
g10
Vwhat
p2016
sg12
g2016
sg14
VWP
p2017
sg16
Nsbag4
(g5
g6
Ntp2018
Rp2019
(dp2020
g10
Vtv
p2021
sg12
VTV
p2022
sg14
VNN
p2023
sg16
Nsbag4
(g5
g6
Ntp2024
Rp2025
(dp2026
g10
Vshow
p2027
sg12
g2027
sg14
VNN
p2028
sg16
Nsbag4
(g5
g6
Ntp2029
Rp2030
(dp2031
g10
Vdo
p2032
sg12
Vdoes
p2033
sg14
VVBZ
p2034
sg16
Nsbag4
(g5
g6
Ntp2035
Rp2036
(dp2037
g10
Vhammond
p2038
sg12
VHammond
p2039
sg14
VNNP
p2040
sg16
Nsbag4
(g5
g6
Ntp2041
Rp2042
(dp2043
g10
Vregularly
p2044
sg12
g2044
sg14
VRB
p2045
sg16
Nsbag4
(g5
g6
Ntp2046
Rp2047
(dp2048
g10
Vappear
p2049
sg12
g2049
sg14
VJJ
p2050
sg16
Nsbag4
(g5
g6
Ntp2051
Rp2052
(dp2053
g10
g59
sg12
g59
sg14
g60
sg16
Nsbasg33
S'showswith'
p2054
sg35
I00
sa(dp2055
g2
(lp2056
g4
(g5
g6
Ntp2057
Rp2058
(dp2059
g10
Vdefinition
p2060
sg12
g2060
sg14
VNN
p2061
sg16
Nsbag4
(g5
g6
Ntp2062
Rp2063
(dp2064
g10
Vof
p2065
sg12
g2065
sg14
VIN
p2066
sg16
Nsbag4
(g5
g6
Ntp2067
Rp2068
(dp2069
g10
Vcomputer
p2070
sg12
g2070
sg14
VNN
p2071
sg16
Nsbasg33
S'whatis'
p2072
sg35
I00
sa(dp2073
g2
(lp2074
g4
(g5
g6
Ntp2075
Rp2076
(dp2077
g10
Vwhere
p2078
sg12
g2078
sg14
VWRB
p2079
sg16
Nsbag4
(g5
g6
Ntp2080
Rp2081
(dp2082
g10
Vbe
p2083
sg12
Vis
p2084
sg14
VVBZ
p2085
sg16
Nsbag4
(g5
g6
Ntp2086
Rp2087
(dp2088
g10
Vthe
p2089
sg12
g2089
sg14
VDT
p2090
sg16
Nsbag4
(g5
g6
Ntp2091
Rp2092
(dp2093
g10
Vstatue
p2094
sg12
VStatue
p2095
sg14
VNNP
p2096
sg16
Nsbag4
(g5
g6
Ntp2097
Rp2098
(dp2099
g10
Vof
p2100
sg12
g2100
sg14
VIN
p2101
sg16
Nsbag4
(g5
g6
Ntp2102
Rp2103
(dp2104
g10
Vliberty
p2105
sg12
VLiberty
p2106
sg14
VNNP
p2107
sg16
Nsbasg33
S'whereis'
p2108
sg35
I00
sa(dp2109
g2
(lp2110
g4
(g5
g6
Ntp2111
Rp2112
(dp2113
g10
Vwho
p2114
sg12
g2114
sg14
VWP
p2115
sg16
Nsbag4
(g5
g6
Ntp2116
Rp2117
(dp2118
g10
Vbe
p2119
sg12
Vare
p2120
sg14
VVBP
p2121
sg16
Nsbag4
(g5
g6
Ntp2122
Rp2123
(dp2124
g10
Vthe
p2125
sg12
g2125
sg14
VDT
p2126
sg16
Nsbag4
(g5
g6
Ntp2127
Rp2128
(dp2129
g10
Vpresident
p2130
sg12
Vpresidents
p2131
sg14
VNNS
p2132
sg16
Nsbag4
(g5
g6
Ntp2133
Rp2134
(dp2135
g10
Vof
p2136
sg12
g2136
sg14
VIN
p2137
sg16
Nsbag4
(g5
g6
Ntp2138
Rp2139
(dp2140
g10
Vbolivia
p2141
sg12
VBolivia
p2142
sg14
VNNP
p2143
sg16
Nsbag4
(g5
g6
Ntp2144
Rp2145
(dp2146
g10
g59
sg12
g59
sg14
g60
sg16
Nsbasg33
S'presidentsof'
p2147
sg35
I00
sa(dp2148
g2
(lp2149
g4
(g5
g6
Ntp2150
Rp2151
(dp2152
g10
Vwho
p2153
sg12
g2153
sg14
VWP
p2154
sg16
Nsbag4
(g5
g6
Ntp2155
Rp2156
(dp2157
g10
Vhave
p2158
sg12
g2158
sg14
VVBP
p2159
sg16
Nsbag4
(g5
g6
Ntp2160
Rp2161
(dp2162
g10
Vbe
p2163
sg12
Vbeen
p2164
sg14
VVBN
p2165
sg16
Nsbag4
(g5
g6
Ntp2166
Rp2167
(dp2168
g10
Vpresident
p2169
sg12
Vpresidents
p2170
sg14
VNNS
p2171
sg16
Nsbag4
(g5
g6
Ntp2172
Rp2173
(dp2174
g10
Vof
p2175
sg12
g2175
sg14
VIN
p2176
sg16
Nsbag4
(g5
g6
Ntp2177
Rp2178
(dp2179
g10
Vthe
p2180
sg12
g2180
sg14
VDT
p2181
sg16
Nsbag4
(g5
g6
Ntp2182
Rp2183
(dp2184
g10
Vrepublic
p2185
sg12
VRepublic
p2186
sg14
VNNP
p2187
sg16
Nsbag4
(g5
g6
Ntp2188
Rp2189
(dp2190
g10
Vof
p2191
sg12
g2191
sg14
VIN
p2192
sg16
Nsbag4
(g5
g6
Ntp2193
Rp2194
(dp2195
g10
Vegypt
p2196
sg12
VEgypt
p2197
sg14
VNNP
p2198
sg16
Nsbag4
(g5
g6
Ntp2199
Rp2200
(dp2201
g10
g59
sg12
g59
sg14
g60
sg16
Nsbasg33
S'presidentsof'
p2202
sg35
I00
sa(dp2203
g2
(lp2204
g4
(g5
g6
Ntp2205
Rp2206
(dp2207
g10
Vwho
p2208
sg12
g2208
sg14
VWP
p2209
sg16
Nsbag4
(g5
g6
Ntp2210
Rp2211
(dp2212
g10
Vhave
p2213
sg12
g2213
sg14
VVBP
p2214
sg16
Nsbag4
(g5
g6
Ntp2215
Rp2216
(dp2217
g10
Vbe
p2218
sg12
Vbeen
p2219
sg14
VVBN
p2220
sg16
Nsbag4
(g5
g6
Ntp2221
Rp2222
(dp2223
g10
Vpresident
p2224
sg12
Vpresidents
p2225
sg14
VNNS
p2226
sg16
Nsbag4
(g5
g6
Ntp2227
Rp2228
(dp2229
g10
Vof
p2230
sg12
g2230
sg14
VIN
p2231
sg16
Nsbag4
(g5
g6
Ntp2232
Rp2233
(dp2234
g10
Vthe
p2235
sg12
g2235
sg14
VDT
p2236
sg16
Nsbag4
(g5
g6
Ntp2237
Rp2238
(dp2239
g10
Varab
p2240
sg12
VArab
p2241
sg14
VNNP
p2242
sg16
Nsbag4
(g5
g6
Ntp2243
Rp2244
(dp2245
g10
Vrepublic
p2246
sg12
VRepublic
p2247
sg14
VNNP
p2248
sg16
Nsbag4
(g5
g6
Ntp2249
Rp2250
(dp2251
g10
Vof
p2252
sg12
g2252
sg14
VIN
p2253
sg16
Nsbag4
(g5
g6
Ntp2254
Rp2255
(dp2256
g10
Vegypt
p2257
sg12
VEgypt
p2258
sg14
VNNP
p2259
sg16
Nsbag4
(g5
g6
Ntp2260
Rp2261
(dp2262
g10
g59
sg12
g59
sg14
g60
sg16
Nsbasg33
S'presidentsof'
p2263
sg35
I00
sa(dp2264
g2
(lp2265
g4
(g5
g6
Ntp2266
Rp2267
(dp2268
g10
Vwho
p2269
sg12
g2269
sg14
VWP
p2270
sg16
Nsbag4
(g5
g6
Ntp2271
Rp2272
(dp2273
g10
Vbe
p2274
sg12
Vare
p2275
sg14
VVBP
p2276
sg16
Nsbag4
(g5
g6
Ntp2277
Rp2278
(dp2279
g10
Vthe
p2280
sg12
g2280
sg14
VDT
p2281
sg16
Nsbag4
(g5
g6
Ntp2282
Rp2283
(dp2284
g10
Vpast
p2285
sg12
g2285
sg14
VJJ
p2286
sg16
Nsbag4
(g5
g6
Ntp2287
Rp2288
(dp2289
g10
Vliders
p2290
sg12
g2290
sg14
VNNS
p2291
sg16
Nsbag4
(g5
g6
Ntp2292
Rp2293
(dp2294
g10
Vof
p2295
sg12
g2295
sg14
VIN
p2296
sg16
Nsbag4
(g5
g6
Ntp2297
Rp2298
(dp2299
g10
Vbrazil
p2300
sg12
VBrazil
p2301
sg14
VNNP
p2302
sg16
Nsbag4
(g5
g6
Ntp2303
Rp2304
(dp2305
g10
g59
sg12
g59
sg14
g60
sg16
Nsbasg33
S'presidentsof'
p2306
sg35
I00
sa(dp2307
g2
(lp2308
g4
(g5
g6
Ntp2309
Rp2310
(dp2311
g10
Vwhat
p2312
sg12
g2312
sg14
VWP
p2313
sg16
Nsbag4
(g5
g6
Ntp2314
Rp2315
(dp2316
g10
Vbe
p2317
sg12
Vis
p2318
sg14
VVBZ
p2319
sg16
Nsbag4
(g5
g6
Ntp2320
Rp2321
(dp2322
g10
Vthe
p2323
sg12
g2323
sg14
VDT
p2324
sg16
Nsbag4
(g5
g6
Ntp2325
Rp2326
(dp2327
g10
Vcapital
p2328
sg12
g2328
sg14
VNN
p2329
sg16
Nsbag4
(g5
g6
Ntp2330
Rp2331
(dp2332
g10
Vcity
p2333
sg12
g2333
sg14
VNN
p2334
sg16
Nsbag4
(g5
g6
Ntp2335
Rp2336
(dp2337
g10
Vof
p2338
sg12
g2338
sg14
VIN
p2339
sg16
Nsbag4
(g5
g6
Ntp2340
Rp2341
(dp2342
g10
Vthe
p2343
sg12
g2343
sg14
VDT
p2344
sg16
Nsbag4
(g5
g6
Ntp2345
Rp2346
(dp2347
g10
Vunited
p2348
sg12
VUnited
p2349
sg14
VNNP
p2350
sg16
Nsbag4
(g5
g6
Ntp2351
Rp2352
(dp2353
g10
Vkingdom
p2354
sg12
VKingdom
p2355
sg14
VNNP
p2356
sg16
Nsbag4
(g5
g6
Ntp2357
Rp2358
(dp2359
g10
g59
sg12
g59
sg14
g60
sg16
Nsbasg33
S'capitalcityof'
p2360
sg35
I00
sa(dp2361
g2
(lp2362
g4
(g5
g6
Ntp2363
Rp2364
(dp2365
g10
Vwhat
p2366
sg12
g2366
sg14
VWP
p2367
sg16
Nsbag4
(g5
g6
Ntp2368
Rp2369
(dp2370
g10
Vbe
p2371
sg12
Vis
p2372
sg14
VVBZ
p2373
sg16
Nsbag4
(g5
g6
Ntp2374
Rp2375
(dp2376
g10
Vthe
p2377
sg12
g2377
sg14
VDT
p2378
sg16
Nsbag4
(g5
g6
Ntp2379
Rp2380
(dp2381
g10
Vcapital
p2382
sg12
g2382
sg14
VNN
p2383
sg16
Nsbag4
(g5
g6
Ntp2384
Rp2385
(dp2386
g10
Vof
p2387
sg12
g2387
sg14
VIN
p2388
sg16
Nsbag4
(g5
g6
Ntp2389
Rp2390
(dp2391
g10
Vthe
p2392
sg12
g2392
sg14
VDT
p2393
sg16
Nsbag4
(g5
g6
Ntp2394
Rp2395
(dp2396
g10
Vcountry
p2397
sg12
g2397
sg14
VNN
p2398
sg16
Nsbag4
(g5
g6
Ntp2399
Rp2400
(dp2401
g10
Vgermany
p2402
sg12
VGermany
p2403
sg14
VNNP
p2404
sg16
Nsbag4
(g5
g6
Ntp2405
Rp2406
(dp2407
g10
g59
sg12
g59
sg14
g60
sg16
Nsbasg33
S'capitalcityof'
p2408
sg35
I00
sa(dp2409
g2
(lp2410
g4
(g5
g6
Ntp2411
Rp2412
(dp2413
g10
Vwhat
p2414
sg12
VWhat
p2415
sg14
VWP
p2416
sg16
Nsbag4
(g5
g6
Ntp2417
Rp2418
(dp2419
g10
Vbe
p2420
sg12
Vis
p2421
sg14
VVBZ
p2422
sg16
Nsbag4
(g5
g6
Ntp2423
Rp2424
(dp2425
g10
Vthe
p2426
sg12
g2426
sg14
VDT
p2427
sg16
Nsbag4
(g5
g6
Ntp2428
Rp2429
(dp2430
g10
Vmain
p2431
sg12
g2431
sg14
VJJ
p2432
sg16
Nsbag4
(g5
g6
Ntp2433
Rp2434
(dp2435
g10
Vspoken
p2436
sg12
g2436
sg14
VNN
p2437
sg16
Nsbag4
(g5
g6
Ntp2438
Rp2439
(dp2440
g10
Vlanguage
p2441
sg12
g2441
sg14
VNN
p2442
sg16
Nsbag4
(g5
g6
Ntp2443
Rp2444
(dp2445
g10
Vin
p2446
sg12
g2446
sg14
VIN
p2447
sg16
Nsbag4
(g5
g6
Ntp2448
Rp2449
(dp2450
g10
Vpoland
p2451
sg12
VPoland
p2452
sg14
VNNP
p2453
sg16
Nsbag4
(g5
g6
Ntp2454
Rp2455
(dp2456
g10
g59
sg12
g59
sg14
g60
sg16
Nsbasg33
S'spokenlanguageof'
p2457
sg35
I00
sa(dp2458
g2
(lp2459
g4
(g5
g6
Ntp2460
Rp2461
(dp2462
g10
Vwhat
p2463
sg12
g2463
sg14
VWP
p2464
sg16
Nsbag4
(g5
g6
Ntp2465
Rp2466
(dp2467
g10
Vbe
p2468
sg12
Vis
p2469
sg14
VVBZ
p2470
sg16
Nsbag4
(g5
g6
Ntp2471
Rp2472
(dp2473
g10
Vthe
p2474
sg12
g2474
sg14
VDT
p2475
sg16
Nsbag4
(g5
g6
Ntp2476
Rp2477
(dp2478
g10
Vmain
p2479
sg12
g2479
sg14
VJJ
p2480
sg16
Nsbag4
(g5
g6
Ntp2481
Rp2482
(dp2483
g10
Vlanguage
p2484
sg12
g2484
sg14
VNN
p2485
sg16
Nsbag4
(g5
g6
Ntp2486
Rp2487
(dp2488
g10
Vin
p2489
sg12
g2489
sg14
VIN
p2490
sg16
Nsbag4
(g5
g6
Ntp2491
Rp2492
(dp2493
g10
Vth
p2494
sg12
g2494
sg14
VNN
p2495
sg16
Nsbag4
(g5
g6
Ntp2496
Rp2497
(dp2498
g10
Vrepublic
p2499
sg12
g2499
sg14
VJJ
p2500
sg16
Nsbag4
(g5
g6
Ntp2501
Rp2502
(dp2503
g10
Vof
p2504
sg12
g2504
sg14
VIN
p2505
sg16
Nsbag4
(g5
g6
Ntp2506
Rp2507
(dp2508
g10
Vargentina
p2509
sg12
VArgentina
p2510
sg14
VNNP
p2511
sg16
Nsbag4
(g5
g6
Ntp2512
Rp2513
(dp2514
g10
g59
sg12
g59
sg14
g60
sg16
Nsbasg33
S'spokenlanguageof'
p2515
sg35
I00
sa(dp2516
g2
(lp2517
g4
(g5
g6
Ntp2518
Rp2519
(dp2520
g10
Vhow
p2521
sg12
g2521
sg14
VWRB
p2522
sg16
Nsbag4
(g5
g6
Ntp2523
Rp2524
(dp2525
g10
Vmany
p2526
sg12
g2526
sg14
VJJ
p2527
sg16
Nsbag4
(g5
g6
Ntp2528
Rp2529
(dp2530
g10
Vpeople
p2531
sg12
g2531
sg14
VNNS
p2532
sg16
Nsbag4
(g5
g6
Ntp2533
Rp2534
(dp2535
g10
Vbe
p2536
sg12
Vis
p2537
sg14
VVBZ
p2538
sg16
Nsbag4
(g5
g6
Ntp2539
Rp2540
(dp2541
g10
Vin
p2542
sg12
g2542
sg14
VIN
p2543
sg16
Nsbag4
(g5
g6
Ntp2544
Rp2545
(dp2546
g10
Vparaguay
p2547
sg12
VParaguay
p2548
sg14
VNNP
p2549
sg16
Nsbag4
(g5
g6
Ntp2550
Rp2551
(dp2552
g10
g59
sg12
g59
sg14
g60
sg16
Nsbasg33
S'populationof'
p2553
sg35
I00
sa(dp2554
g2
(lp2555
g4
(g5
g6
Ntp2556
Rp2557
(dp2558
g10
Vhow
p2559
sg12
g2559
sg14
VWRB
p2560
sg16
Nsbag4
(g5
g6
Ntp2561
Rp2562
(dp2563
g10
Vmany
p2564
sg12
g2564
sg14
VJJ
p2565
sg16
Nsbag4
(g5
g6
Ntp2566
Rp2567
(dp2568
g10
Vpeople
p2569
sg12
g2569
sg14
VNNS
p2570
sg16
Nsbag4
(g5
g6
Ntp2571
Rp2572
(dp2573
g10
Vthere
p2574
sg12
g2574
sg14
VEX
p2575
sg16
Nsbag4
(g5
g6
Ntp2576
Rp2577
(dp2578
g10
Vbe
p2579
sg12
Vis
p2580
sg14
VVBZ
p2581
sg16
Nsbag4
(g5
g6
Ntp2582
Rp2583
(dp2584
g10
Vin
p2585
sg12
g2585
sg14
VIN
p2586
sg16
Nsbag4
(g5
g6
Ntp2587
Rp2588
(dp2589
g10
Vthe
p2590
sg12
g2590
sg14
VDT
p2591
sg16
Nsbag4
(g5
g6
Ntp2592
Rp2593
(dp2594
g10
Vpeople
p2595
sg12
VPeople
p2596
sg14
VNNP
p2597
sg16
Nsbag4
(g5
g6
Ntp2598
Rp2599
(dp2600
g10
V'
p2601
sg12
g2601
sg14
VPOS
p2602
sg16
Nsbag4
(g5
g6
Ntp2603
Rp2604
(dp2605
g10
Vs
p2606
sg12
g2606
sg14
VNNS
p2607
sg16
Nsbag4
(g5
g6
Ntp2608
Rp2609
(dp2610
g10
Vrepublic
p2611
sg12
VRepublic
p2612
sg14
VNNP
p2613
sg16
Nsbag4
(g5
g6
Ntp2614
Rp2615
(dp2616
g10
Vof
p2617
sg12
g2617
sg14
VIN
p2618
sg16
Nsbag4
(g5
g6
Ntp2619
Rp2620
(dp2621
g10
Vchina
p2622
sg12
VChina
p2623
sg14
VNNP
p2624
sg16
Nsbag4
(g5
g6
Ntp2625
Rp2626
(dp2627
g10
g59
sg12
g59
sg14
g60
sg16
Nsbasg33
S'populationof'
p2628
sg35
I00
sa(dp2629
g2
(lp2630
g4
(g5
g6
Ntp2631
Rp2632
(dp2633
g10
Vwhat
p2634
sg12
g2634
sg14
VWP
p2635
sg16
Nsbag4
(g5
g6
Ntp2636
Rp2637
(dp2638
g10
Vmovie
p2639
sg12
Vmovies
p2640
sg14
VNNS
p2641
sg16
Nsbag4
(g5
g6
Ntp2642
Rp2643
(dp2644
g10
Vthere
p2645
sg12
g2645
sg14
VRB
p2646
sg16
Nsbag4
(g5
g6
Ntp2647
Rp2648
(dp2649
g10
Vbe
p2650
sg12
Vare
p2651
sg14
VVBP
p2652
sg16
Nsbag4
(g5
g6
Ntp2653
Rp2654
(dp2655
g10
g59
sg12
g59
sg14
g60
sg16
Nsbasg33
S'listmovies'
p2656
sg35
I00
sa(dp2657
g2
(lp2658
g4
(g5
g6
Ntp2659
Rp2660
(dp2661
g10
Vsteven
p2662
sg12
g2662
sg14
VRB
p2663
sg16
Nsbag4
(g5
g6
Ntp2664
Rp2665
(dp2666
g10
Vspielberg
p2667
sg12
g2667
sg14
VVBP
p2668
sg16
Nsbag4
(g5
g6
Ntp2669
Rp2670
(dp2671
g10
Vbe
p2672
sg12
Vwas
p2673
sg14
VVBD
p2674
sg16
Nsbag4
(g5
g6
Ntp2675
Rp2676
(dp2677
g10
Vthe
p2678
sg12
g2678
sg14
VDT
p2679
sg16
Nsbag4
(g5
g6
Ntp2680
Rp2681
(dp2682
g10
Vdirector
p2683
sg12
g2683
sg14
VNN
p2684
sg16
Nsbag4
(g5
g6
Ntp2685
Rp2686
(dp2687
g10
Vof
p2688
sg12
g2688
sg14
VIN
p2689
sg16
Nsbag4
(g5
g6
Ntp2690
Rp2691
(dp2692
g10
Vwhat
p2693
sg12
g2693
sg14
VWP
p2694
sg16
Nsbag4
(g5
g6
Ntp2695
Rp2696
(dp2697
g10
Vmovie
p2698
sg12
Vmovies
p2699
sg14
VNNS
p2700
sg16
Nsbag4
(g5
g6
Ntp2701
Rp2702
(dp2703
g10
g59
sg12
g59
sg14
g60
sg16
Nsbasg33
S'moviesbydirector'
p2704
sg35
I00
sa(dp2705
g2
(lp2706
g4
(g5
g6
Ntp2707
Rp2708
(dp2709
g10
Vhow
p2710
sg12
g2710
sg14
VWRB
p2711
sg16
Nsbag4
(g5
g6
Ntp2712
Rp2713
(dp2714
g10
Vmany
p2715
sg12
g2715
sg14
VJJ
p2716
sg16
Nsbag4
(g5
g6
Ntp2717
Rp2718
(dp2719
g10
Vminutes
p2720
sg12
g2720
sg14
VNNS
p2721
sg16
Nsbag4
(g5
g6
Ntp2722
Rp2723
(dp2724
g10
Vlong
p2725
sg12
g2725
sg14
VRB
p2726
sg16
Nsbag4
(g5
g6
Ntp2727
Rp2728
(dp2729
g10
Vbe
p2730
sg12
Vis
p2731
sg14
VVBZ
p2732
sg16
Nsbag4
(g5
g6
Ntp2733
Rp2734
(dp2735
g10
Vthe
p2736
sg12
g2736
sg14
VDT
p2737
sg16
Nsbag4
(g5
g6
Ntp2738
Rp2739
(dp2740
g10
Vlord
p2741
sg12
g2741
sg14
VNN
p2742
sg16
Nsbag4
(g5
g6
Ntp2743
Rp2744
(dp2745
g10
Vof
p2746
sg12
g2746
sg14
VIN
p2747
sg16
Nsbag4
(g5
g6
Ntp2748
Rp2749
(dp2750
g10
Vthe
p2751
sg12
g2751
sg14
VDT
p2752
sg16
Nsbag4
(g5
g6
Ntp2753
Rp2754
(dp2755
g10
Vrings
p2756
sg12
g2756
sg14
VNNS
p2757
sg16
Nsbag4
(g5
g6
Ntp2758
Rp2759
(dp2760
g10
g59
sg12
g59
sg14
g60
sg16
Nsbasg33
S'movieduration'
p2761
sg35
I00
sa(dp2762
g2
(lp2763
g4
(g5
g6
Ntp2764
Rp2765
(dp2766
g10
Vwhen
p2767
sg12
g2767
sg14
VWRB
p2768
sg16
Nsbag4
(g5
g6
Ntp2769
Rp2770
(dp2771
g10
Vbe
p2772
sg12
Vwas
p2773
sg14
VVBD
p2774
sg16
Nsbag4
(g5
g6
Ntp2775
Rp2776
(dp2777
g10
Vharry
p2778
sg12
VHarry
p2779
sg14
VNNP
p2780
sg16
Nsbag4
(g5
g6
Ntp2781
Rp2782
(dp2783
g10
Vpotter
p2784
sg12
VPotter
p2785
sg14
VNNP
p2786
sg16
Nsbag4
(g5
g6
Ntp2787
Rp2788
(dp2789
g10
Vthe
p2790
sg12
g2790
sg14
VDT
p2791
sg16
Nsbag4
(g5
g6
Ntp2792
Rp2793
(dp2794
g10
Vmovie
p2795
sg12
g2795
sg14
VNN
p2796
sg16
Nsbag4
(g5
g6
Ntp2797
Rp2798
(dp2799
g10
Vrelease
p2800
sg12
Vreleased
p2801
sg14
VVBD
p2802
sg16
Nsbag4
(g5
g6
Ntp2803
Rp2804
(dp2805
g10
g59
sg12
g59
sg14
g60
sg16
Nsbasg33
S'moviereleasedate'
p2806
sg35
I00
sa(dp2807
g2
(lp2808
g4
(g5
g6
Ntp2809
Rp2810
(dp2811
g10
Vwhat
p2812
sg12
g2812
sg14
VWP
p2813
sg16
Nsbag4
(g5
g6
Ntp2814
Rp2815
(dp2816
g10
Vactor
p2817
sg12
Vactors
p2818
sg14
VNNS
p2819
sg16
Nsbag4
(g5
g6
Ntp2820
Rp2821
(dp2822
g10
Vwork
p2823
sg12
Vworked
p2824
sg14
VVBD
p2825
sg16
Nsbag4
(g5
g6
Ntp2826
Rp2827
(dp2828
g10
Von
p2829
sg12
g2829
sg14
VIN
p2830
sg16
Nsbag4
(g5
g6
Ntp2831
Rp2832
(dp2833
g10
Vthe
p2834
sg12
g2834
sg14
VDT
p2835
sg16
Nsbag4
(g5
g6
Ntp2836
Rp2837
(dp2838
g10
Vmatrix
p2839
sg12
g2839
sg14
VNN
p2840
sg16
Nsbag4
(g5
g6
Ntp2841
Rp2842
(dp2843
g10
g59
sg12
g59
sg14
g60
sg16
Nsbasg33
S'actedon'
p2844
sg35
I00
sa(dp2845
g2
(lp2846
g4
(g5
g6
Ntp2847
Rp2848
(dp2849
g10
Vactor
p2850
sg12
Vactors
p2851
sg14
VNNS
p2852
sg16
Nsbag4
(g5
g6
Ntp2853
Rp2854
(dp2855
g10
Vof
p2856
sg12
g2856
sg14
VIN
p2857
sg16
Nsbag4
(g5
g6
Ntp2858
Rp2859
(dp2860
g10
Vmemoirs
p2861
sg12
VMemoirs
p2862
sg14
VNNP
p2863
sg16
Nsbag4
(g5
g6
Ntp2864
Rp2865
(dp2866
g10
Vof
p2867
sg12
g2867
sg14
VIN
p2868
sg16
Nsbag4
(g5
g6
Ntp2869
Rp2870
(dp2871
g10
g26
sg12
g26
sg14
VDT
p2872
sg16
Nsbag4
(g5
g6
Ntp2873
Rp2874
(dp2875
g10
Vgeisha
p2876
sg12
VGeisha
p2877
sg14
VNNP
p2878
sg16
Nsbasg33
S'actedon'
p2879
sg35
I00
sa(dp2880
g2
(lp2881
g4
(g5
g6
Ntp2882
Rp2883
(dp2884
g10
Vactor
p2885
sg12
Vactors
p2886
sg14
VNNS
p2887
sg16
Nsbag4
(g5
g6
Ntp2888
Rp2889
(dp2890
g10
Vthat
p2891
sg12
g2891
sg14
VIN
p2892
sg16
Nsbag4
(g5
g6
Ntp2893
Rp2894
(dp2895
g10
Vworked
p2896
sg12
g2896
sg14
VJJ
p2897
sg16
Nsbag4
(g5
g6
Ntp2898
Rp2899
(dp2900
g10
Vin
p2901
sg12
g2901
sg14
VIN
p2902
sg16
Nsbag4
(g5
g6
Ntp2903
Rp2904
(dp2905
g10
Vthe
p2906
sg12
g2906
sg14
VDT
p2907
sg16
Nsbag4
(g5
g6
Ntp2908
Rp2909
(dp2910
g10
Vmovie
p2911
sg12
g2911
sg14
VNN
p2912
sg16
Nsbag4
(g5
g6
Ntp2913
Rp2914
(dp2915
g10
Vmatrix
p2916
sg12
VMatrix
p2917
sg14
VNNP
p2918
sg16
Nsbag4
(g5
g6
Ntp2919
Rp2920
(dp2921
g10
g59
sg12
g59
sg14
g60
sg16
Nsbasg33
S'actedon'
p2922
sg35
I00
sa(dp2923
g2
(lp2924
g4
(g5
g6
Ntp2925
Rp2926
(dp2927
g10
Vlist
p2928
sg12
g2928
sg14
VNN
p2929
sg16
Nsbag4
(g5
g6
Ntp2930
Rp2931
(dp2932
g10
Vthe
p2933
sg12
g2933
sg14
VDT
p2934
sg16
Nsbag4
(g5
g6
Ntp2935
Rp2936
(dp2937
g10
Vactor
p2938
sg12
Vactors
p2939
sg14
VNNS
p2940
sg16
Nsbag4
(g5
g6
Ntp2941
Rp2942
(dp2943
g10
Vthat
p2944
sg12
g2944
sg14
VWDT
p2945
sg16
Nsbag4
(g5
g6
Ntp2946
Rp2947
(dp2948
g10
Vwork
p2949
sg12
Vworked
p2950
sg14
VVBD
p2951
sg16
Nsbag4
(g5
g6
Ntp2952
Rp2953
(dp2954
g10
Vin
p2955
sg12
g2955
sg14
VIN
p2956
sg16
Nsbag4
(g5
g6
Ntp2957
Rp2958
(dp2959
g10
Valice
p2960
sg12
VAlice
p2961
sg14
VNNP
p2962
sg16
Nsbag4
(g5
g6
Ntp2963
Rp2964
(dp2965
g10
Vin
p2966
sg12
g2966
sg14
VIN
p2967
sg16
Nsbag4
(g5
g6
Ntp2968
Rp2969
(dp2970
g10
Vwonderland
p2971
sg12
VWonderland
p2972
sg14
VNNP
p2973
sg16
Nsbasg33
S'actedon'
p2974
sg35
I00
sa(dp2975
g2
(lp2976
g4
(g5
g6
Ntp2977
Rp2978
(dp2979
g10
Vlist
p2980
sg12
g2980
sg14
VNN
p2981
sg16
Nsbag4
(g5
g6
Ntp2982
Rp2983
(dp2984
g10
Vactor
p2985
sg12
Vactors
p2986
sg14
VNNS
p2987
sg16
Nsbag4
(g5
g6
Ntp2988
Rp2989
(dp2990
g10
Vstar
p2991
sg12
Vstarring
p2992
sg14
VVBG
p2993
sg16
Nsbag4
(g5
g6
Ntp2994
Rp2995
(dp2996
g10
Vin
p2997
sg12
g2997
sg14
VIN
p2998
sg16
Nsbag4
(g5
g6
Ntp2999
Rp3000
(dp3001
g10
Vthe
p3002
sg12
g3002
sg14
VDT
p3003
sg16
Nsbag4
(g5
g6
Ntp3004
Rp3005
(dp3006
g10
Vmovie
p3007
sg12
g3007
sg14
VNN
p3008
sg16
Nsbag4
(g5
g6
Ntp3009
Rp3010
(dp3011
g10
Vthe
p3012
sg12
VThe
p3013
sg14
VDT
p3014
sg16
Nsbag4
(g5
g6
Ntp3015
Rp3016
(dp3017
g10
Vnightmare
p3018
sg12
VNightmare
p3019
sg14
VNNP
p3020
sg16
Nsbag4
(g5
g6
Ntp3021
Rp3022
(dp3023
g10
Vbefore
p3024
sg12
VBefore
p3025
sg14
VNNP
p3026
sg16
Nsbag4
(g5
g6
Ntp3027
Rp3028
(dp3029
g10
Vchristmas
p3030
sg12
VChristmas
p3031
sg14
VNNP
p3032
sg16
Nsbasg33
S'actedon'
p3033
sg35
I00
sa(dp3034
g2
(lp3035
g4
(g5
g6
Ntp3036
Rp3037
(dp3038
g10
Vplot
p3039
sg12
g3039
sg14
VNN
p3040
sg16
Nsbag4
(g5
g6
Ntp3041
Rp3042
(dp3043
g10
Vof
p3044
sg12
g3044
sg14
VIN
p3045
sg16
Nsbag4
(g5
g6
Ntp3046
Rp3047
(dp3048
g10
Vfrozen
p3049
sg12
VFrozen
p3050
sg14
VNNP
p3051
sg16
Nsbag4
(g5
g6
Ntp3052
Rp3053
(dp3054
g10
g59
sg12
g59
sg14
g60
sg16
Nsbasg33
S'plotof'
p3055
sg35
I00
sa(dp3056
g2
(lp3057
g4
(g5
g6
Ntp3058
Rp3059
(dp3060
g10
Vwhat
p3061
sg12
g3061
sg14
VWP
p3062
sg16
Nsbag4
(g5
g6
Ntp3063
Rp3064
(dp3065
g10
Vbe
p3066
sg12
Vis
p3067
sg14
VVBZ
p3068
sg16
Nsbag4
(g5
g6
Ntp3069
Rp3070
(dp3071
g10
Vthe
p3072
sg12
g3072
sg14
VDT
p3073
sg16
Nsbag4
(g5
g6
Ntp3074
Rp3075
(dp3076
g10
Vhitchhiker
p3077
sg12
g3077
sg14
VNN
p3078
sg16
Nsbag4
(g5
g6
Ntp3079
Rp3080
(dp3081
g10
g2601
sg12
g2601
sg14
VPOS
p3082
sg16
Nsbag4
(g5
g6
Ntp3083
Rp3084
(dp3085
g10
g2606
sg12
g2606
sg14
VNNS
p3086
sg16
Nsbag4
(g5
g6
Ntp3087
Rp3088
(dp3089
g10
Vguide
p3090
sg12
g3090
sg14
VVBP
p3091
sg16
Nsbag4
(g5
g6
Ntp3092
Rp3093
(dp3094
g10
Vto
p3095
sg12
g3095
sg14
VTO
p3096
sg16
Nsbag4
(g5
g6
Ntp3097
Rp3098
(dp3099
g10
Vthe
p3100
sg12
g3100
sg14
VDT
p3101
sg16
Nsbag4
(g5
g6
Ntp3102
Rp3103
(dp3104
g10
Vgalaxy
p3105
sg12
g3105
sg14
VNN
p3106
sg16
Nsbag4
(g5
g6
Ntp3107
Rp3108
(dp3109
g10
Vabout
p3110
sg12
g3110
sg14
VIN
p3111
sg16
Nsbag4
(g5
g6
Ntp3112
Rp3113
(dp3114
g10
g59
sg12
g59
sg14
g60
sg16
Nsbasg33
S'plotof'
p3115
sg35
I00
sa(dp3116
g2
(lp3117
g4
(g5
g6
Ntp3118
Rp3119
(dp3120
g10
Vwhen
p3121
sg12
VWhen
p3122
sg14
VWRB
p3123
sg16
Nsbag4
(g5
g6
Ntp3124
Rp3125
(dp3126
g10
Vbe
p3127
sg12
Vwas
p3128
sg14
VVBD
p3129
sg16
Nsbag4
(g5
g6
Ntp3130
Rp3131
(dp3132
g10
Vthe
p3133
sg12
g3133
sg14
VDT
p3134
sg16
Nsbag4
(g5
g6
Ntp3135
Rp3136
(dp3137
g10
Vred
p3138
sg12
VRed
p3139
sg14
VNNP
p3140
sg16
Nsbag4
(g5
g6
Ntp3141
Rp3142
(dp3143
g10
Vhot
p3144
sg12
VHot
p3145
sg14
VNNP
p3146
sg16
Nsbag4
(g5
g6
Ntp3147
Rp3148
(dp3149
g10
Vchili
p3150
sg12
VChili
p3151
sg14
VNNP
p3152
sg16
Nsbag4
(g5
g6
Ntp3153
Rp3154
(dp3155
g10
Vpeppers
p3156
sg12
VPeppers
p3157
sg14
VNNP
p3158
sg16
Nsbag4
(g5
g6
Ntp3159
Rp3160
(dp3161
g10
Vfound
p3162
sg12
Vfounded
p3163
sg14
VVBD
p3164
sg16
Nsbag4
(g5
g6
Ntp3165
Rp3166
(dp3167
g10
g59
sg12
g59
sg14
g60
sg16
Nsbasg33
S'bandfoundation'
p3168
sg35
I00
sa(dp3169
g2
(lp3170
g4
(g5
g6
Ntp3171
Rp3172
(dp3173
g10
Vwhen
p3174
sg12
g3174
sg14
VWRB
p3175
sg16
Nsbag4
(g5
g6
Ntp3176
Rp3177
(dp3178
g10
Vbe
p3179
sg12
Vwas
p3180
sg14
VVBD
p3181
sg16
Nsbag4
(g5
g6
Ntp3182
Rp3183
(dp3184
g10
Vthe
p3185
sg12
g3185
sg14
VDT
p3186
sg16
Nsbag4
(g5
g6
Ntp3187
Rp3188
(dp3189
g10
Vrolling
p3190
sg12
VRolling
p3191
sg14
VNNP
p3192
sg16
Nsbag4
(g5
g6
Ntp3193
Rp3194
(dp3195
g10
Vstones
p3196
sg12
VStones
p3197
sg14
VNNP
p3198
sg16
Nsbag4
(g5
g6
Ntp3199
Rp3200
(dp3201
g10
Vborn
p3202
sg12
g3202
sg14
VNN
p3203
sg16
Nsbag4
(g5
g6
Ntp3204
Rp3205
(dp3206
g10
g59
sg12
g59
sg14
g60
sg16
Nsbasg33
S'bandfoundation'
p3207
sg35
I00
sa(dp3208
g2
(lp3209
g4
(g5
g6
Ntp3210
Rp3211
(dp3212
g10
Vwhen
p3213
sg12
g3213
sg14
VWRB
p3214
sg16
Nsbag4
(g5
g6
Ntp3215
Rp3216
(dp3217
g10
Vdo
p3218
sg12
Vdid
p3219
sg14
VVBD
p3220
sg16
Nsbag4
(g5
g6
Ntp3221
Rp3222
(dp3223
g10
Vmy
p3224
sg12
VMy
p3225
sg14
VNNP
p3226
sg16
Nsbag4
(g5
g6
Ntp3227
Rp3228
(dp3229
g10
Vchemical
p3230
sg12
VChemical
p3231
sg14
VNNP
p3232
sg16
Nsbag4
(g5
g6
Ntp3233
Rp3234
(dp3235
g10
Vromance
p3236
sg12
VRomance
p3237
sg14
VNNP
p3238
sg16
Nsbag4
(g5
g6
Ntp3239
Rp3240
(dp3241
g10
Vstart
p3242
sg12
g3242
sg14
VNN
p3243
sg16
Nsbag4
(g5
g6
Ntp3244
Rp3245
(dp3246
g10
Vto
p3247
sg12
g3247
sg14
VTO
p3248
sg16
Nsbag4
(g5
g6
Ntp3249
Rp3250
(dp3251
g10
Vperform
p3252
sg12
g3252
sg14
VVB
p3253
sg16
Nsbag4
(g5
g6
Ntp3254
Rp3255
(dp3256
g10
g59
sg12
g59
sg14
g60
sg16
Nsbasg33
S'bandfoundation'
p3257
sg35
I00
sa(dp3258
g2
(lp3259
g4
(g5
g6
Ntp3260
Rp3261
(dp3262
g10
Vin
p3263
sg12
g3263
sg14
VIN
p3264
sg16
Nsbag4
(g5
g6
Ntp3265
Rp3266
(dp3267
g10
Vwhat
p3268
sg12
g3268
sg14
VWP
p3269
sg16
Nsbag4
(g5
g6
Ntp3270
Rp3271
(dp3272
g10
Vyear
p3273
sg12
g3273
sg14
VNN
p3274
sg16
Nsbag4
(g5
g6
Ntp3275
Rp3276
(dp3277
g10
Vdo
p3278
sg12
Vdid
p3279
sg14
VVBD
p3280
sg16
Nsbag4
(g5
g6
Ntp3281
Rp3282
(dp3283
g10
Vthe
p3284
sg12
g3284
sg14
VDT
p3285
sg16
Nsbag4
(g5
g6
Ntp3286
Rp3287
(dp3288
g10
Vsex
p3289
sg12
VSex
p3290
sg14
VNNP
p3291
sg16
Nsbag4
(g5
g6
Ntp3292
Rp3293
(dp3294
g10
Vpistols
p3295
sg12
VPistols
p3296
sg14
VNNP
p3297
sg16
Nsbag4
(g5
g6
Ntp3298
Rp3299
(dp3300
g10
Vstart
p3301
sg12
g3301
sg14
VNN
p3302
sg16
Nsbag4
(g5
g6
Ntp3303
Rp3304
(dp3305
g10
Vto
p3306
sg12
g3306
sg14
VTO
p3307
sg16
Nsbag4
(g5
g6
Ntp3308
Rp3309
(dp3310
g10
Vmake
p3311
sg12
g3311
sg14
VVB
p3312
sg16
Nsbag4
(g5
g6
Ntp3313
Rp3314
(dp3315
g10
Vrecital
p3316
sg12
Vrecitals
p3317
sg14
VNNS
p3318
sg16
Nsbag4
(g5
g6
Ntp3319
Rp3320
(dp3321
g10
g59
sg12
g59
sg14
g60
sg16
Nsbasg33
S'bandfoundation'
p3322
sg35
I00
sa(dp3323
g2
(lp3324
g4
(g5
g6
Ntp3325
Rp3326
(dp3327
g10
Vwhat
p3328
sg12
g3328
sg14
VWP
p3329
sg16
Nsbag4
(g5
g6
Ntp3330
Rp3331
(dp3332
g10
Vtype
p3333
sg12
g3333
sg14
VNN
p3334
sg16
Nsbag4
(g5
g6
Ntp3335
Rp3336
(dp3337
g10
Vof
p3338
sg12
g3338
sg14
VIN
p3339
sg16
Nsbag4
(g5
g6
Ntp3340
Rp3341
(dp3342
g10
Vmusic
p3343
sg12
g3343
sg14
VJJ
p3344
sg16
Nsbag4
(g5
g6
Ntp3345
Rp3346
(dp3347
g10
Vdo
p3348
sg12
Vdoes
p3349
sg14
VVBZ
p3350
sg16
Nsbag4
(g5
g6
Ntp3351
Rp3352
(dp3353
g10
Vac
p3354
sg12
VAC
p3355
sg14
VNNP
p3356
sg16
Nsbag4
(g5
g6
Ntp3357
Rp3358
(dp3359
g10
Vdc
p3360
sg12
VDC
p3361
sg14
VNNP
p3362
sg16
Nsbag4
(g5
g6
Ntp3363
Rp3364
(dp3365
g10
g59
sg12
g59
sg14
g60
sg16
Nsbasg33
S'musicgenre'
p3366
sg35
I00
sa(dp3367
g2
(lp3368
g4
(g5
g6
Ntp3369
Rp3370
(dp3371
g10
Vwhat
p3372
sg12
g3372
sg14
VWP
p3373
sg16
Nsbag4
(g5
g6
Ntp3374
Rp3375
(dp3376
g10
Vtype
p3377
sg12
g3377
sg14
VNN
p3378
sg16
Nsbag4
(g5
g6
Ntp3379
Rp3380
(dp3381
g10
Vof
p3382
sg12
g3382
sg14
VIN
p3383
sg16
Nsbag4
(g5
g6
Ntp3384
Rp3385
(dp3386
g10
Vsong
p3387
sg12
Vsongs
p3388
sg14
VNNS
p3389
sg16
Nsbag4
(g5
g6
Ntp3390
Rp3391
(dp3392
g10
Vdo
p3393
sg12
Vdoes
p3394
sg14
VVBZ
p3395
sg16
Nsbag4
(g5
g6
Ntp3396
Rp3397
(dp3398
g10
Vthe
p3399
sg12
g3399
sg14
VDT
p3400
sg16
Nsbag4
(g5
g6
Ntp3401
Rp3402
(dp3403
g10
Vrolling
p3404
sg12
VRolling
p3405
sg14
VNNP
p3406
sg16
Nsbag4
(g5
g6
Ntp3407
Rp3408
(dp3409
g10
Vstones
p3410
sg12
VStones
p3411
sg14
VNNP
p3412
sg16
Nsbag4
(g5
g6
Ntp3413
Rp3414
(dp3415
g10
g59
sg12
g59
sg14
g60
sg16
Nsbasg33
S'musicgenre'
p3416
sg35
I00
sa(dp3417
g2
(lp3418
g4
(g5
g6
Ntp3419
Rp3420
(dp3421
g10
Vwhat
p3422
sg12
g3422
sg14
VWP
p3423
sg16
Nsbag4
(g5
g6
Ntp3424
Rp3425
(dp3426
g10
Vworks
p3427
sg12
g3427
sg14
VNNS
p3428
sg16
Nsbag4
(g5
g6
Ntp3429
Rp3430
(dp3431
g10
Vdo
p3432
sg12
Vdid
p3433
sg14
VVBD
p3434
sg16
Nsbag4
(g5
g6
Ntp3435
Rp3436
(dp3437
g10
Vthe
p3438
sg12
g3438
sg14
VDT
p3439
sg16
Nsbag4
(g5
g6
Ntp3440
Rp3441
(dp3442
g10
Vbeatles
p3443
sg12
VBeatles
p3444
sg14
VNNP
p3445
sg16
Nsbag4
(g5
g6
Ntp3446
Rp3447
(dp3448
g10
Vdo
p3449
sg12
g3449
sg14
VVBP
p3450
sg16
Nsbag4
(g5
g6
Ntp3451
Rp3452
(dp3453
g10
g59
sg12
g59
sg14
g60
sg16
Nsbasg33
S'albumsofband'
p3454
sg35
I00
sa(dp3455
g2
(lp3456
g4
(g5
g6
Ntp3457
Rp3458
(dp3459
g10
Vwhich
p3460
sg12
g3460
sg14
VWDT
p3461
sg16
Nsbag4
(g5
g6
Ntp3462
Rp3463
(dp3464
g10
Vworks
p3465
sg12
g3465
sg14
VNNS
p3466
sg16
Nsbag4
(g5
g6
Ntp3467
Rp3468
(dp3469
g10
Vdo
p3470
sg12
Vdid
p3471
sg14
VVBD
p3472
sg16
Nsbag4
(g5
g6
Ntp3473
Rp3474
(dp3475
g10
Vlinkin
p3476
sg12
VLinkin
p3477
sg14
VNNP
p3478
sg16
Nsbag4
(g5
g6
Ntp3479
Rp3480
(dp3481
g10
Vpark
p3482
sg12
VPark
p3483
sg14
VNNP
p3484
sg16
Nsbag4
(g5
g6
Ntp3485
Rp3486
(dp3487
g10
Vmake
p3488
sg12
g3488
sg14
VVBP
p3489
sg16
Nsbag4
(g5
g6
Ntp3490
Rp3491
(dp3492
g10
g59
sg12
g59
sg14
g60
sg16
Nsbasg33
S'albumsofband'
p3493
sg35
I00
sa(dp3494
g2
(lp3495
g4
(g5
g6
Ntp3496
Rp3497
(dp3498
g10
Valbum
p3499
sg12
Valbums
p3500
sg14
VNNS
p3501
sg16
Nsbag4
(g5
g6
Ntp3502
Rp3503
(dp3504
g10
Vrecord
p3505
sg12
Vrecorded
p3506
sg14
VVBD
p3507
sg16
Nsbag4
(g5
g6
Ntp3508
Rp3509
(dp3510
g10
Vby
p3511
sg12
g3511
sg14
VIN
p3512
sg16
Nsbag4
(g5
g6
Ntp3513
Rp3514
(dp3515
g10
Vthe
p3516
sg12
g3516
sg14
VDT
p3517
sg16
Nsbag4
(g5
g6
Ntp3518
Rp3519
(dp3520
g10
Vguns
p3521
sg12
VGuns
p3522
sg14
VNNP
p3523
sg16
Nsbag4
(g5
g6
Ntp3524
Rp3525
(dp3526
g10
Vn
p3527
sg12
g3527
sg14
VNN
p3528
sg16
Nsbag4
(g5
g6
Ntp3529
Rp3530
(dp3531
g10
g2601
sg12
g2601
sg14
VPOS
p3532
sg16
Nsbag4
(g5
g6
Ntp3533
Rp3534
(dp3535
g10
Vroses
p3536
sg12
VRoses
p3537
sg14
VNNS
p3538
sg16
Nsbasg33
S'albumsofband'
p3539
sg35
I00
sa(dp3540
g2
(lp3541
g4
(g5
g6
Ntp3542
Rp3543
(dp3544
g10
Vwhat
p3545
sg12
VWhat
p3546
sg14
VWP
p3547
sg16
Nsbag4
(g5
g6
Ntp3548
Rp3549
(dp3550
g10
Vbe
p3551
sg12
Vare
p3552
sg14
VVBP
p3553
sg16
Nsbag4
(g5
g6
Ntp3554
Rp3555
(dp3556
g10
Vtitle
p3557
sg12
Vtitles
p3558
sg14
VNNS
p3559
sg16
Nsbag4
(g5
g6
Ntp3560
Rp3561
(dp3562
g10
Vof
p3563
sg12
g3563
sg14
VIN
p3564
sg16
Nsbag4
(g5
g6
Ntp3565
Rp3566
(dp3567
g10
Valbum
p3568
sg12
Valbums
p3569
sg14
VNNS
p3570
sg16
Nsbag4
(g5
g6
Ntp3571
Rp3572
(dp3573
g10
Vfeature
p3574
sg12
Vfeaturing
p3575
sg14
VVBG
p3576
sg16
Nsbag4
(g5
g6
Ntp3577
Rp3578
(dp3579
g10
Vthe
p3580
sg12
VThe
p3581
sg14
VDT
p3582
sg16
Nsbag4
(g5
g6
Ntp3583
Rp3584
(dp3585
g10
Vblack
p3586
sg12
VBlack
p3587
sg14
VNNP
p3588
sg16
Nsbag4
(g5
g6
Ntp3589
Rp3590
(dp3591
g10
Veyed
p3592
sg12
VEyed
p3593
sg14
VNNP
p3594
sg16
Nsbag4
(g5
g6
Ntp3595
Rp3596
(dp3597
g10
Vpeas
p3598
sg12
VPeas
p3599
sg14
VNNP
p3600
sg16
Nsbag4
(g5
g6
Ntp3601
Rp3602
(dp3603
g10
g59
sg12
g59
sg14
g60
sg16
Nsbasg33
S'albumsofband'
p3604
sg35
I00
sa(dp3605
g2
(lp3606
g4
(g5
g6
Ntp3607
Rp3608
(dp3609
g10
Vbiography
p3610
sg12
g3610
sg14
VNN
p3611
sg16
Nsbag4
(g5
g6
Ntp3612
Rp3613
(dp3614
g10
Vof
p3615
sg12
g3615
sg14
VIN
p3616
sg16
Nsbag4
(g5
g6
Ntp3617
Rp3618
(dp3619
g10
Vcharles
p3620
sg12
VCharles
p3621
sg14
VNNP
p3622
sg16
Nsbag4
(g5
g6
Ntp3623
Rp3624
(dp3625
g10
Vdickens
p3626
sg12
VDickens
p3627
sg14
VNNP
p3628
sg16
Nsbasg33
S'whois'
p3629
sg35
I00
sa(dp3630
g2
(lp3631
g4
(g5
g6
Ntp3632
Rp3633
(dp3634
g10
Vwhen
p3635
sg12
g3635
sg14
VWRB
p3636
sg16
Nsbag4
(g5
g6
Ntp3637
Rp3638
(dp3639
g10
Vbe
p3640
sg12
Vis
p3641
sg14
VVBZ
p3642
sg16
Nsbag4
(g5
g6
Ntp3643
Rp3644
(dp3645
g10
Vangelina
p3646
sg12
VAngelina
p3647
sg14
VNNP
p3648
sg16
Nsbag4
(g5
g6
Ntp3649
Rp3650
(dp3651
g10
Vjolie
p3652
sg12
VJolie
p3653
sg14
VNNP
p3654
sg16
Nsbag4
(g5
g6
Ntp3655
Rp3656
(dp3657
g10
g2601
sg12
g2601
sg14
VPOS
p3658
sg16
Nsbag4
(g5
g6
Ntp3659
Rp3660
(dp3661
g10
g2606
sg12
g2606
sg14
VNNS
p3662
sg16
Nsbag4
(g5
g6
Ntp3663
Rp3664
(dp3665
g10
Vbirthday
p3666
sg12
g3666
sg14
VNN
p3667
sg16
Nsbag4
(g5
g6
Ntp3668
Rp3669
(dp3670
g10
g59
sg12
g59
sg14
g60
sg16
Nsbasg33
S'howoldis'
p3671
sg35
I00
sa(dp3672
g2
(lp3673
g4
(g5
g6
Ntp3674
Rp3675
(dp3676
g10
Vwhat
p3677
sg12
g3677
sg14
VWP
p3678
sg16
Nsbag4
(g5
g6
Ntp3679
Rp3680
(dp3681
g10
Vbe
p3682
sg12
Vis
p3683
sg14
VVBZ
p3684
sg16
Nsbag4
(g5
g6
Ntp3685
Rp3686
(dp3687
g10
Vthe
p3688
sg12
g3688
sg14
VDT
p3689
sg16
Nsbag4
(g5
g6
Ntp3690
Rp3691
(dp3692
g10
Vage
p3693
sg12
g3693
sg14
VNN
p3694
sg16
Nsbag4
(g5
g6
Ntp3695
Rp3696
(dp3697
g10
Vof
p3698
sg12
g3698
sg14
VIN
p3699
sg16
Nsbag4
(g5
g6
Ntp3700
Rp3701
(dp3702
g10
Vkaty
p3703
sg12
VKaty
p3704
sg14
VNNP
p3705
sg16
Nsbag4
(g5
g6
Ntp3706
Rp3707
(dp3708
g10
Vperry
p3709
sg12
VPerry
p3710
sg14
VNNP
p3711
sg16
Nsbag4
(g5
g6
Ntp3712
Rp3713
(dp3714
g10
g59
sg12
g59
sg14
g60
sg16
Nsbasg33
S'howoldis'
p3715
sg35
I00
sa(dp3716
g2
(lp3717
g4
(g5
g6
Ntp3718
Rp3719
(dp3720
g10
Vin
p3721
sg12
g3721
sg14
VIN
p3722
sg16
Nsbag4
(g5
g6
Ntp3723
Rp3724
(dp3725
g10
Vwhat
p3726
sg12
g3726
sg14
VWP
p3727
sg16
Nsbag4
(g5
g6
Ntp3728
Rp3729
(dp3730
g10
Vyear
p3731
sg12
g3731
sg14
VNN
p3732
sg16
Nsbag4
(g5
g6
Ntp3733
Rp3734
(dp3735
g10
Vbe
p3736
sg12
Vwas
p3737
sg14
VVBD
p3738
sg16
Nsbag4
(g5
g6
Ntp3739
Rp3740
(dp3741
g10
Vmadonna
p3742
sg12
VMadonna
p3743
sg14
VNNP
p3744
sg16
Nsbag4
(g5
g6
Ntp3745
Rp3746
(dp3747
g10
Vborn
p3748
sg12
g3748
sg14
VNN
p3749
sg16
Nsbag4
(g5
g6
Ntp3750
Rp3751
(dp3752
g10
g59
sg12
g59
sg14
g60
sg16
Nsbasg33
S'howoldis'
p3753
sg35
I00
sa(dp3754
g2
(lp3755
g4
(g5
g6
Ntp3756
Rp3757
(dp3758
g10
Vin
p3759
sg12
g3759
sg14
VIN
p3760
sg16
Nsbag4
(g5
g6
Ntp3761
Rp3762
(dp3763
g10
Vwhat
p3764
sg12
g3764
sg14
VWP
p3765
sg16
Nsbag4
(g5
g6
Ntp3766
Rp3767
(dp3768
g10
Vdate
p3769
sg12
g3769
sg14
VNN
p3770
sg16
Nsbag4
(g5
g6
Ntp3771
Rp3772
(dp3773
g10
Vdo
p3774
sg12
Vdid
p3775
sg14
VVBD
p3776
sg16
Nsbag4
(g5
g6
Ntp3777
Rp3778
(dp3779
g10
Vbryan
p3780
sg12
VBryan
p3781
sg14
VNNP
p3782
sg16
Nsbag4
(g5
g6
Ntp3783
Rp3784
(dp3785
g10
Vcranston
p3786
sg12
VCranston
p3787
sg14
VNNP
p3788
sg16
Nsbag4
(g5
g6
Ntp3789
Rp3790
(dp3791
g10
Vborn
p3792
sg12
g3792
sg14
VNN
p3793
sg16
Nsbag4
(g5
g6
Ntp3794
Rp3795
(dp3796
g10
g59
sg12
g59
sg14
g60
sg16
Nsbasg33
S'howoldis'
p3797
sg35
I00
sa(dp3798
g2
(lp3799
g4
(g5
g6
Ntp3800
Rp3801
(dp3802
g10
Vwhen
p3803
sg12
g3803
sg14
VWRB
p3804
sg16
Nsbag4
(g5
g6
Ntp3805
Rp3806
(dp3807
g10
Vbe
p3808
sg12
Vwas
p3809
sg14
VVBD
p3810
sg16
Nsbag4
(g5
g6
Ntp3811
Rp3812
(dp3813
g10
Vgeorge
p3814
sg12
VGeorge
p3815
sg14
VNNP
p3816
sg16
Nsbag4
(g5
g6
Ntp3817
Rp3818
(dp3819
g10
Vclooney
p3820
sg12
VClooney
p3821
sg14
VNNP
p3822
sg16
Nsbag4
(g5
g6
Ntp3823
Rp3824
(dp3825
g10
Vborn
p3826
sg12
g3826
sg14
VNN
p3827
sg16
Nsbag4
(g5
g6
Ntp3828
Rp3829
(dp3830
g10
g59
sg12
g59
sg14
g60
sg16
Nsbasg33
S'howoldis'
p3831
sg35
I00
sa(dp3832
g2
(lp3833
g4
(g5
g6
Ntp3834
Rp3835
(dp3836
g10
Vwhere
p3837
sg12
g3837
sg14
VWRB
p3838
sg16
Nsbag4
(g5
g6
Ntp3839
Rp3840
(dp3841
g10
Vbe
p3842
sg12
Vwas
p3843
sg14
VVBD
p3844
sg16
Nsbag4
(g5
g6
Ntp3845
Rp3846
(dp3847
g10
Vmatt
p3848
sg12
VMatt
p3849
sg14
VNNP
p3850
sg16
Nsbag4
(g5
g6
Ntp3851
Rp3852
(dp3853
g10
Vdamon
p3854
sg12
VDamon
p3855
sg14
VNNP
p3856
sg16
Nsbag4
(g5
g6
Ntp3857
Rp3858
(dp3859
g10
Vborn
p3860
sg12
g3860
sg14
VNN
p3861
sg16
Nsbag4
(g5
g6
Ntp3862
Rp3863
(dp3864
g10
g59
sg12
g59
sg14
g60
sg16
Nsbasg33
S'whereisfrom'
p3865
sg35
I00
sa(dp3866
g2
(lp3867
g4
(g5
g6
Ntp3868
Rp3869
(dp3870
g10
Vwhere
p3871
sg12
VWhere
p3872
sg14
VWRB
p3873
sg16
Nsbag4
(g5
g6
Ntp3874
Rp3875
(dp3876
g10
Vdo
p3877
sg12
Vdid
p3878
sg14
VVBD
p3879
sg16
Nsbag4
(g5
g6
Ntp3880
Rp3881
(dp3882
g10
Vhe
p3883
sg12
g3883
sg14
VPRP
p3884
sg16
Nsbag4
(g5
g6
Ntp3885
Rp3886
(dp3887
g10
Vgrow
p3888
sg12
g3888
sg14
VNN
p3889
sg16
Nsbag4
(g5
g6
Ntp3890
Rp3891
(dp3892
g10
Vup
p3893
sg12
g3893
sg14
VRP
p3894
sg16
Nsbag4
(g5
g6
Ntp3895
Rp3896
(dp3897
g10
g59
sg12
g59
sg14
g60
sg16
Nsbasg33
S'whereisfrom'
p3898
sg35
I00
sa(dp3899
g2
(lp3900
g4
(g5
g6
Ntp3901
Rp3902
(dp3903
g10
Vwhere
p3904
sg12
g3904
sg14
VWRB
p3905
sg16
Nsbag4
(g5
g6
Ntp3906
Rp3907
(dp3908
g10
Vdo
p3909
sg12
Vdid
p3910
sg14
VVBD
p3911
sg16
Nsbag4
(g5
g6
Ntp3912
Rp3913
(dp3914
g10
Vj
p3915
sg12
VJ
p3916
sg14
VNNP
p3917
sg16
Nsbag4
(g5
g6
Ntp3918
Rp3919
(dp3920
g10
g60
sg12
g60
sg14
g60
sg16
Nsbag4
(g5
g6
Ntp3921
Rp3922
(dp3923
g10
Vr
p3924
sg12
VR
p3925
sg14
VNNP
p3926
sg16
Nsbag4
(g5
g6
Ntp3927
Rp3928
(dp3929
g10
g60
sg12
g60
sg14
g60
sg16
Nsbag4
(g5
g6
Ntp3930
Rp3931
(dp3932
g10
Vr
p3933
sg12
g3925
sg14
VNNP
p3934
sg16
Nsbag4
(g5
g6
Ntp3935
Rp3936
(dp3937
g10
g60
sg12
g60
sg14
g60
sg16
Nsbag4
(g5
g6
Ntp3938
Rp3939
(dp3940
g10
Vtolkien
p3941
sg12
VTolkien
p3942
sg14
VNNP
p3943
sg16
Nsbag4
(g5
g6
Ntp3944
Rp3945
(dp3946
g10
Vborn
p3947
sg12
g3947
sg14
VNN
p3948
sg16
Nsbag4
(g5
g6
Ntp3949
Rp3950
(dp3951
g10
g59
sg12
g59
sg14
g60
sg16
Nsbasg33
S'whereisfrom'
p3952
sg35
I00
sa(dp3953
g2
(lp3954
g4
(g5
g6
Ntp3955
Rp3956
(dp3957
g10
Vwhich
p3958
sg12
g3958
sg14
VWDT
p3959
sg16
Nsbag4
(g5
g6
Ntp3960
Rp3961
(dp3962
g10
Vbe
p3963
sg12
Vare
p3964
sg14
VVBP
p3965
sg16
Nsbag4
(g5
g6
Ntp3966
Rp3967
(dp3968
g10
Vthe
p3969
sg12
g3969
sg14
VDT
p3970
sg16
Nsbag4
(g5
g6
Ntp3971
Rp3972
(dp3973
g10
Vactor
p3974
sg12
Vactors
p3975
sg14
VNNS
p3976
sg16
Nsbag4
(g5
g6
Ntp3977
Rp3978
(dp3979
g10
Vof
p3980
sg12
g3980
sg14
VIN
p3981
sg16
Nsbag4
(g5
g6
Ntp3982
Rp3983
(dp3984
g10
Vgrey
p3985
sg12
VGrey
p3986
sg14
VNNP
p3987
sg16
Nsbag4
(g5
g6
Ntp3988
Rp3989
(dp3990
g10
g2601
sg12
g2601
sg14
VPOS
p3991
sg16
Nsbag4
(g5
g6
Ntp3992
Rp3993
(dp3994
g10
g2606
sg12
g2606
sg14
VNNS
p3995
sg16
Nsbag4
(g5
g6
Ntp3996
Rp3997
(dp3998
g10
Vanatomy
p3999
sg12
VAnatomy
p4000
sg14
VNNP
p4001
sg16
Nsbasg33
S'castof'
p4002
sg35
I00
sa(dp4003
g2
(lp4004
g4
(g5
g6
Ntp4005
Rp4006
(dp4007
g10
Vlist
p4008
sg12
g4008
sg14
VNN
p4009
sg16
Nsbag4
(g5
g6
Ntp4010
Rp4011
(dp4012
g10
Vof
p4013
sg12
g4013
sg14
VIN
p4014
sg16
Nsbag4
(g5
g6
Ntp4015
Rp4016
(dp4017
g10
Vactor
p4018
sg12
Vactors
p4019
sg14
VNNS
p4020
sg16
Nsbag4
(g5
g6
Ntp4021
Rp4022
(dp4023
g10
Vof
p4024
sg12
g4024
sg14
VIN
p4025
sg16
Nsbag4
(g5
g6
Ntp4026
Rp4027
(dp4028
g10
Vthe
p4029
sg12
g4029
sg14
VDT
p4030
sg16
Nsbag4
(g5
g6
Ntp4031
Rp4032
(dp4033
g10
Vshow
p4034
sg12
g4034
sg14
VNN
p4035
sg16
Nsbag4
(g5
g6
Ntp4036
Rp4037
(dp4038
g10
Vthe
p4039
sg12
VThe
p4040
sg14
VDT
p4041
sg16
Nsbag4
(g5
g6
Ntp4042
Rp4043
(dp4044
g10
Vaddams
p4045
sg12
VAddams
p4046
sg14
VNNP
p4047
sg16
Nsbag4
(g5
g6
Ntp4048
Rp4049
(dp4050
g10
Vfamily
p4051
sg12
VFamily
p4052
sg14
VNNP
p4053
sg16
Nsbasg33
S'castof'
p4054
sg35
I00
sa(dp4055
g2
(lp4056
g4
(g5
g6
Ntp4057
Rp4058
(dp4059
g10
Vwhich
p4060
sg12
g4060
sg14
VWDT
p4061
sg16
Nsbag4
(g5
g6
Ntp4062
Rp4063
(dp4064
g10
Vbe
p4065
sg12
Vwere
p4066
sg14
VVBD
p4067
sg16
Nsbag4
(g5
g6
Ntp4068
Rp4069
(dp4070
g10
Vthe
p4071
sg12
g4071
sg14
VDT
p4072
sg16
Nsbag4
(g5
g6
Ntp4073
Rp4074
(dp4075
g10
Vactor
p4076
sg12
Vactors
p4077
sg14
VNNS
p4078
sg16
Nsbag4
(g5
g6
Ntp4079
Rp4080
(dp4081
g10
Vof
p4082
sg12
g4082
sg14
VIN
p4083
sg16
Nsbag4
(g5
g6
Ntp4084
Rp4085
(dp4086
g10
Vthe
p4087
sg12
g4087
sg14
VDT
p4088
sg16
Nsbag4
(g5
g6
Ntp4089
Rp4090
(dp4091
g10
Vtv
p4092
sg12
VTV
p4093
sg14
VNN
p4094
sg16
Nsbag4
(g5
g6
Ntp4095
Rp4096
(dp4097
g10
Vshow
p4098
sg12
g4098
sg14
VNN
p4099
sg16
Nsbag4
(g5
g6
Ntp4100
Rp4101
(dp4102
g10
Vuggly
p4103
sg12
VUggly
p4104
sg14
VRB
p4105
sg16
Nsbag4
(g5
g6
Ntp4106
Rp4107
(dp4108
g10
Vbetty
p4109
sg12
VBetty
p4110
sg14
VNNP
p4111
sg16
Nsbasg33
S'castof'
p4112
sg35
I00
sa(dp4113
g2
(lp4114
g4
(g5
g6
Ntp4115
Rp4116
(dp4117
g10
Vwhat
p4118
sg12
g4118
sg14
VWP
p4119
sg16
Nsbag4
(g5
g6
Ntp4120
Rp4121
(dp4122
g10
Vtv
p4123
sg12
VTV
p4124
sg14
VNN
p4125
sg16
Nsbag4
(g5
g6
Ntp4126
Rp4127
(dp4128
g10
Vshow
p4129
sg12
Vshows
p4130
sg14
VVBZ
p4131
sg16
Nsbag4
(g5
g6
Ntp4132
Rp4133
(dp4134
g10
Vbe
p4135
sg12
Vare
p4136
sg14
VVBP
p4137
sg16
Nsbag4
(g5
g6
Ntp4138
Rp4139
(dp4140
g10
g59
sg12
g59
sg14
g60
sg16
Nsbasg33
S'listtvshows'
p4141
sg35
I00
sa(dp4142
g2
(lp4143
g4
(g5
g6
Ntp4144
Rp4145
(dp4146
g10
Vwhat
p4147
sg12
g4147
sg14
VWP
p4148
sg16
Nsbag4
(g5
g6
Ntp4149
Rp4150
(dp4151
g10
Vtv
p4152
sg12
VTV
p4153
sg14
VNN
p4154
sg16
Nsbag4
(g5
g6
Ntp4155
Rp4156
(dp4157
g10
Vshow
p4158
sg12
Vshows
p4159
sg14
VVBZ
p4160
sg16
Nsbag4
(g5
g6
Ntp4161
Rp4162
(dp4163
g10
Vhave
p4164
sg12
g4164
sg14
VVB
p4165
sg16
Nsbag4
(g5
g6
Ntp4166
Rp4167
(dp4168
g10
Vbe
p4169
sg12
Vbeen
p4170
sg14
VVBN
p4171
sg16
Nsbag4
(g5
g6
Ntp4172
Rp4173
(dp4174
g10
Vmake
p4175
sg12
Vmade
p4176
sg14
VVBN
p4177
sg16
Nsbag4
(g5
g6
Ntp4178
Rp4179
(dp4180
g10
g59
sg12
g59
sg14
g60
sg16
Nsbasg33
S'listtvshows'
p4181
sg35
I00
sa(dp4182
g2
(lp4183
g4
(g5
g6
Ntp4184
Rp4185
(dp4186
g10
Vshow
p4187
sg12
Vshows
p4188
sg14
VNNS
p4189
sg16
Nsbag4
(g5
g6
Ntp4190
Rp4191
(dp4192
g10
Vwhere
p4193
sg12
g4193
sg14
VWRB
p4194
sg16
Nsbag4
(g5
g6
Ntp4195
Rp4196
(dp4197
g10
Vmatthew
p4198
sg12
VMatthew
p4199
sg14
VNNP
p4200
sg16
Nsbag4
(g5
g6
Ntp4201
Rp4202
(dp4203
g10
Vperry
p4204
sg12
VPerry
p4205
sg14
VNNP
p4206
sg16
Nsbag4
(g5
g6
Ntp4207
Rp4208
(dp4209
g10
Vwork
p4210
sg12
Vworked
p4211
sg14
VVBD
p4212
sg16
Nsbag4
(g5
g6
Ntp4213
Rp4214
(dp4215
g10
Vin
p4216
sg12
g4216
sg14
VIN
p4217
sg16
Nsbag4
(g5
g6
Ntp4218
Rp4219
(dp4220
g10
g59
sg12
g59
sg14
g60
sg16
Nsbasg33
S'showswith'
p4221
sg35
I00
sa(dp4222
g2
(lp4223
g4
(g5
g6
Ntp4224
Rp4225
(dp4226
g10
Vwho
p4227
sg12
g4227
sg14
VWP
p4228
sg16
Nsbag4
(g5
g6
Ntp4229
Rp4230
(dp4231
g10
Vcreate
p4232
sg12
g4232
sg14
VVBP
p4233
sg16
Nsbag4
(g5
g6
Ntp4234
Rp4235
(dp4236
g10
Vstargate
p4237
sg12
VStargate
p4238
sg14
VNNP
p4239
sg16
Nsbag4
(g5
g6
Ntp4240
Rp4241
(dp4242
g10
Vatlantis
p4243
sg12
VAtlantis
p4244
sg14
VNNP
p4245
sg16
Nsbag4
(g5
g6
Ntp4246
Rp4247
(dp4248
g10
g59
sg12
g59
sg14
g60
sg16
Nsbasg33
S'creatorof'
p4249
sg35
I00
sa(dp4250
g2
(lp4251
g4
(g5
g6
Ntp4252
Rp4253
(dp4254
g10
Vwho
p4255
sg12
g4255
sg14
VWP
p4256
sg16
Nsbag4
(g5
g6
Ntp4257
Rp4258
(dp4259
g10
Vbe
p4260
sg12
Vis
p4261
sg14
VVBZ
p4262
sg16
Nsbag4
(g5
g6
Ntp4263
Rp4264
(dp4265
g10
Vthe
p4266
sg12
g4266
sg14
VDT
p4267
sg16
Nsbag4
(g5
g6
Ntp4268
Rp4269
(dp4270
g10
Vwriter
p4271
sg12
g4271
sg14
VNN
p4272
sg16
Nsbag4
(g5
g6
Ntp4273
Rp4274
(dp4275
g10
Vof
p4276
sg12
g4276
sg14
VIN
p4277
sg16
Nsbag4
(g5
g6
Ntp4278
Rp4279
(dp4280
g10
Vthe
p4281
sg12
VThe
p4282
sg14
VDT
p4283
sg16
Nsbag4
(g5
g6
Ntp4284
Rp4285
(dp4286
g10
Vlord
p4287
sg12
VLord
p4288
sg14
VNNP
p4289
sg16
Nsbag4
(g5
g6
Ntp4290
Rp4291
(dp4292
g10
Vof
p4293
sg12
g4293
sg14
VIN
p4294
sg16
Nsbag4
(g5
g6
Ntp4295
Rp4296
(dp4297
g10
Vthe
p4298
sg12
g4298
sg14
VDT
p4299
sg16
Nsbag4
(g5
g6
Ntp4300
Rp4301
(dp4302
g10
Vrings
p4303
sg12
VRings
p4304
sg14
VNNP
p4305
sg16
Nsbag4
(g5
g6
Ntp4306
Rp4307
(dp4308
g10
g59
sg12
g59
sg14
g60
sg16
Nsbasg33
S'creatorof'
p4309
sg35
I00
sa(dp4310
g2
(lp4311
g4
(g5
g6
Ntp4312
Rp4313
(dp4314
g10
Vwho
p4315
sg12
g4315
sg14
VWP
p4316
sg16
Nsbag4
(g5
g6
Ntp4317
Rp4318
(dp4319
g10
Vcreate
p4320
sg12
g4320
sg14
VVBP
p4321
sg16
Nsbag4
(g5
g6
Ntp4322
Rp4323
(dp4324
g10
Vthe
p4325
sg12
VThe
p4326
sg14
VDT
p4327
sg16
Nsbag4
(g5
g6
Ntp4328
Rp4329
(dp4330
g10
Vneverending
p4331
sg12
VNeverending
p4332
sg14
VNNP
p4333
sg16
Nsbag4
(g5
g6
Ntp4334
Rp4335
(dp4336
g10
Vstory
p4337
sg12
VStory
p4338
sg14
VNNP
p4339
sg16
Nsbag4
(g5
g6
Ntp4340
Rp4341
(dp4342
g10
g59
sg12
g59
sg14
g60
sg16
Nsbasg33
S'creatorof'
p4343
sg35
I00
sa(dp4344
g2
(lp4345
g4
(g5
g6
Ntp4346
Rp4347
(dp4348
g10
Vlist
p4349
sg12
g4349
sg14
VNN
p4350
sg16
Nsbag4
(g5
g6
Ntp4351
Rp4352
(dp4353
g10
Vbook
p4354
sg12
Vbooks
p4355
sg14
VNNS
p4356
sg16
Nsbag4
(g5
g6
Ntp4357
Rp4358
(dp4359
g10
Vwrite
p4360
sg12
Vwritten
p4361
sg14
VVBN
p4362
sg16
Nsbag4
(g5
g6
Ntp4363
Rp4364
(dp4365
g10
Vby
p4366
sg12
g4366
sg14
VIN
p4367
sg16
Nsbag4
(g5
g6
Ntp4368
Rp4369
(dp4370
g10
Vj
p4371
sg12
g3916
sg14
VNNP
p4372
sg16
Nsbag4
(g5
g6
Ntp4373
Rp4374
(dp4375
g10
g60
sg12
g60
sg14
g60
sg16
Nsbag4
(g5
g6
Ntp4376
Rp4377
(dp4378
g10
Vk
p4379
sg12
VK
p4380
sg14
VNNP
p4381
sg16
Nsbag4
(g5
g6
Ntp4382
Rp4383
(dp4384
g10
g60
sg12
g60
sg14
g60
sg16
Nsbag4
(g5
g6
Ntp4385
Rp4386
(dp4387
g10
Vrowling
p4388
sg12
VRowling
p4389
sg14
VNNP
p4390
sg16
Nsbasg33
S'booksbyauthor'
p4391
sg35
I00
sa(dp4392
g2
(lp4393
g4
(g5
g6
Ntp4394
Rp4395
(dp4396
g10
Vlist
p4397
sg12
g4397
sg14
VNN
p4398
sg16
Nsbag4
(g5
g6
Ntp4399
Rp4400
(dp4401
g10
Vof
p4402
sg12
g4402
sg14
VIN
p4403
sg16
Nsbag4
(g5
g6
Ntp4404
Rp4405
(dp4406
g10
Vworks
p4407
sg12
g4407
sg14
VNNS
p4408
sg16
Nsbag4
(g5
g6
Ntp4409
Rp4410
(dp4411
g10
Vwrite
p4412
sg12
Vwritten
p4413
sg14
VVBN
p4414
sg16
Nsbag4
(g5
g6
Ntp4415
Rp4416
(dp4417
g10
Vby
p4418
sg12
g4418
sg14
VIN
p4419
sg16
Nsbag4
(g5
g6
Ntp4420
Rp4421
(dp4422
g10
Vgeorge
p4423
sg12
VGeorge
p4424
sg14
VNNP
p4425
sg16
Nsbag4
(g5
g6
Ntp4426
Rp4427
(dp4428
g10
Vr
p4429
sg12
g3925
sg14
VNNP
p4430
sg16
Nsbag4
(g5
g6
Ntp4431
Rp4432
(dp4433
g10
g60
sg12
g60
sg14
g60
sg16
Nsbag4
(g5
g6
Ntp4434
Rp4435
(dp4436
g10
Vr
p4437
sg12
g3925
sg14
VNNP
p4438
sg16
Nsbag4
(g5
g6
Ntp4439
Rp4440
(dp4441
g10
g60
sg12
g60
sg14
g60
sg16
Nsbag4
(g5
g6
Ntp4442
Rp4443
(dp4444
g10
Vmartin
p4445
sg12
VMartin
p4446
sg14
VNNP
p4447
sg16
Nsbasg33
S'booksbyauthor'
p4448
sg35
I00
sa(dp4449
g2
(lp4450
g4
(g5
g6
Ntp4451
Rp4452
(dp4453
g10
Vlist
p4454
sg12
g4454
sg14
VNN
p4455
sg16
Nsbag4
(g5
g6
Ntp4456
Rp4457
(dp4458
g10
Vof
p4459
sg12
g4459
sg14
VIN
p4460
sg16
Nsbag4
(g5
g6
Ntp4461
Rp4462
(dp4463
g10
Vbook
p4464
sg12
Vbooks
p4465
sg14
VNNS
p4466
sg16
Nsbag4
(g5
g6
Ntp4467
Rp4468
(dp4469
g10
Vcreate
p4470
sg12
Vcreated
p4471
sg14
VVBN
p4472
sg16
Nsbag4
(g5
g6
Ntp4473
Rp4474
(dp4475
g10
Vby
p4476
sg12
g4476
sg14
VIN
p4477
sg16
Nsbag4
(g5
g6
Ntp4478
Rp4479
(dp4480
g10
Vagatha
p4481
sg12
VAgatha
p4482
sg14
VNNP
p4483
sg16
Nsbag4
(g5
g6
Ntp4484
Rp4485
(dp4486
g10
Vchristie
p4487
sg12
VChristie
p4488
sg14
VNNP
p4489
sg16
Nsbasg33
S'booksbyauthor'
p4490
sg35
I00
sa(dp4491
g2
(lp4492
g4
(g5
g6
Ntp4493
Rp4494
(dp4495
g10
Vwhat
p4496
sg12
VWhat
p4497
sg14
VWP
p4498
sg16
Nsbag4
(g5
g6
Ntp4499
Rp4500
(dp4501
g10
Vbe
p4502
sg12
Vare
p4503
sg14
VVBP
p4504
sg16
Nsbag4
(g5
g6
Ntp4505
Rp4506
(dp4507
g10
Vtitle
p4508
sg12
Vtitles
p4509
sg14
VNNS
p4510
sg16
Nsbag4
(g5
g6
Ntp4511
Rp4512
(dp4513
g10
Vof
p4514
sg12
g4514
sg14
VIN
p4515
sg16
Nsbag4
(g5
g6
Ntp4516
Rp4517
(dp4518
g10
Vbook
p4519
sg12
Vbooks
p4520
sg14
VNNS
p4521
sg16
Nsbag4
(g5
g6
Ntp4522
Rp4523
(dp4524
g10
Vwrite
p4525
sg12
Vwritten
p4526
sg14
VVBN
p4527
sg16
Nsbag4
(g5
g6
Ntp4528
Rp4529
(dp4530
g10
Vby
p4531
sg12
g4531
sg14
VIN
p4532
sg16
Nsbag4
(g5
g6
Ntp4533
Rp4534
(dp4535
g10
Vdan
p4536
sg12
VDan
p4537
sg14
VNNP
p4538
sg16
Nsbag4
(g5
g6
Ntp4539
Rp4540
(dp4541
g10
Vbrown
p4542
sg12
VBrown
p4543
sg14
VNNP
p4544
sg16
Nsbag4
(g5
g6
Ntp4545
Rp4546
(dp4547
g10
g59
sg12
g59
sg14
g60
sg16
Nsbasg33
S''
p4548
sg35
I00
sa(dp4549
g2
(lp4550
g4
(g5
g6
Ntp4551
Rp4552
(dp4553
g10
Vwhat
p4554
sg12
VWhat
p4555
sg14
VWP
p4556
sg16
Nsbag4
(g5
g6
Ntp4557
Rp4558
(dp4559
g10
Vmovie
p4560
sg12
Vmovies
p4561
sg14
VNNS
p4562
sg16
Nsbag4
(g5
g6
Ntp4563
Rp4564
(dp4565
g10
Vdo
p4566
sg12
Vdid
p4567
sg14
VVBD
p4568
sg16
Nsbag4
(g5
g6
Ntp4569
Rp4570
(dp4571
g10
Vjames
p4572
sg12
VJames
p4573
sg14
VNNP
p4574
sg16
Nsbag4
(g5
g6
Ntp4575
Rp4576
(dp4577
g10
Vdean
p4578
sg12
VDean
p4579
sg14
VNNP
p4580
sg16
Nsbag4
(g5
g6
Ntp4581
Rp4582
(dp4583
g10
Vappear
p4584
sg12
g4584
sg14
VNN
p4585
sg16
Nsbag4
(g5
g6
Ntp4586
Rp4587
(dp4588
g10
Vin
p4589
sg12
g4589
sg14
VIN
p4590
sg16
Nsbag4
(g5
g6
Ntp4591
Rp4592
(dp4593
g10
g59
sg12
g59
sg14
g60
sg16
Nsbasg33
S'actedon'
p4594
sg35
I00
sa.