(lp0
(dp1
S'question'
p2
(lp3
ccopy_reg
_reconstructor
p4
(cquepy.tagger
Word
p5
c__builtin__
object
p6
Ntp7
Rp8
(dp9
S'lemma'
p10
Vwhat
p11
sS'token'
p12
VWhat
p13
sS'pos'
p14
VWP
p15
sS'prob'
p16
Nsbag4
(g5
g6
Ntp17
Rp18
(dp19
g10
Vbe
p20
sg12
Vis
p21
sg14
VVBZ
p22
sg16
Nsbag4
(g5
g6
Ntp23
Rp24
(dp25
g10
Va
p26
sg12
g26
sg14
VDT
p27
sg16
Nsbag4
(g5
g6
Ntp28
Rp29
(dp30
g10
Vcar
p31
sg12
g31
sg14
VNN
p32
sg16
NsbasS'target'
p33
S'whatis'
p34
sS'recognized'
p35
I01
sa(dp36
g2
(lp37
g4
(g5
g6
Ntp38
Rp39
(dp40
g10
Vwhat
p41
sg12
VWhat
p42
sg14
VWP
p43
sg16
Nsbag4
(g5
g6
Ntp44
Rp45
(dp46
g10
Vbe
p47
sg12
Vis
p48
sg14
VVBZ
p49
sg16
Nsbag4
(g5
g6
Ntp50
Rp51
(dp52
g10
Vseinfield
p53
sg12
VSeinfield
p54
sg14
VNNP
p55
sg16
Nsbag4
(g5
g6
Ntp56
Rp57
(dp58
g10
V?
p59
sg12
g59
sg14
V.
p60
sg16
Nsbasg33
S'whatis'
p61
sg35
I01
sa(dp62
g2
(lp63
g4
(g5
g6
Ntp64
Rp65
(dp66
g10
Vwhere
p67
sg12
g67
sg14
VWRB
p68
sg16
Nsbag4
(g5
g6
Ntp69
Rp70
(dp71
g10
Vin
p72
sg12
g72
sg14
VIN
p73
sg16
Nsbag4
(g5
g6
Ntp74
Rp75
(dp76
g10
Vthe
p77
sg12
g77
sg14
VDT
p78
sg16
Nsbag4
(g5
g6
Ntp79
Rp80
(dp81
g10
Vworld
p82
sg12
g82
sg14
VNN
p83
sg16
Nsbag4
(g5
g6
Ntp84
Rp85
(dp86
g10
Vbe
p87
sg12
Vis
p88
sg14
VVBZ
p89
sg16
Nsbag4
(g5
g6
Ntp90
Rp91
(dp92
g10
Vthe
p93
sg12
g93
sg14
VDT
p94
sg16
Nsbag4
(g5
g6
Ntp95
Rp96
(dp97
g10
Veiffel
p98
sg12
VEiffel
p99
sg14
VNNP
p100
sg16
Nsbag4
(g5
g6
Ntp101
Rp102
(dp103
g10
Vtower
p104
sg12
VTower
p105
sg14
VNNP
p106
sg16
Nsbasg33
S'whereis'
p107
sg35
I01
sa(dp108
g2
(lp109
g4
(g5
g6
Ntp110
Rp111
(dp112
g10
Vlist
p113
sg12
g113
sg14
VNN
p114
sg16
Nsbag4
(g5
g6
Ntp115
Rp116
(dp117
g10
Vpresident
p118
sg12
Vpresidents
p119
sg14
VNNS
p120
sg16
Nsbag4
(g5
g6
Ntp121
Rp122
(dp123
g10
Vof
p124
sg12
g124
sg14
VIN
p125
sg16
Nsbag4
(g5
g6
Ntp126
Rp127
(dp128
g10
Vargentina
p129
sg12
VArgentina
p130
sg14
VNNP
p131
sg16
Nsbag4
(g5
g6
Ntp132
Rp133
(dp134
g10
g59
sg12
g59
sg14
g60
sg16
Nsbasg33
S'presidentsof'
p135
sg35
I01
sa(dp136
g2
(lp137
g4
(g5
g6
Ntp138
Rp139
(dp140
g10
Vwhat
p141
sg12
VWhat
p142
sg14
VWP
p143
sg16
Nsbag4
(g5
g6
Ntp144
Rp145
(dp146
g10
Vbe
p147
sg12
Vis
p148
sg14
VVBZ
p149
sg16
Nsbag4
(g5
g6
Ntp150
Rp151
(dp152
g10
Vthe
p153
sg12
g153
sg14
VDT
p154
sg16
Nsbag4
(g5
g6
Ntp155
Rp156
(dp157
g10
Vcapital
p158
sg12
g158
sg14
VNN
p159
sg16
Nsbag4
(g5
g6
Ntp160
Rp161
(dp162
g10
Vof
p163
sg12
g163
sg14
VIN
p164
sg16
Nsbag4
(g5
g6
Ntp165
Rp166
(dp167
g10
Vbolivia
p168
sg12
VBolivia
p169
sg14
VNNP
p170
sg16
Nsbag4
(g5
g6
Ntp171
Rp172
(dp173
g10
g59
sg12
g59
sg14
g60
sg16
Nsbasg33
S'capitalcityof'
p174
sg35
I01
sa(dp175
g2
(lp176
g4
(g5
g6
Ntp177
Rp178
(dp179
g10
Vwhat
p180
sg12
VWhat
p181
sg14
VWP
p182
sg16
Nsbag4
(g5
g6
Ntp183
Rp184
(dp185
g10
Vbe
p186
sg12
Vis
p187
sg14
VVBZ
p188
sg16
Nsbag4
(g5
g6
Ntp189
Rp190
(dp191
g10
Vthe
p192
sg12
g192
sg14
VDT
p193
sg16
Nsbag4
(g5
g6
Ntp194
Rp195
(dp196
g10
Vlanguage
p197
sg12
g197
sg14
VNN
p198
sg16
Nsbag4
(g5
g6
Ntp199
Rp200
(dp201
g10
Vof
p202
sg12
g202
sg14
VIN
p203
sg16
Nsbag4
(g5
g6
Ntp204
Rp205
(dp206
g10
Vliberia
p207
sg12
VLiberia
p208
sg14
VNNP
p209
sg16
Nsbag4
(g5
g6
Ntp210
Rp211
(dp212
g10
g59
sg12
g59
sg14
g60
sg16
Nsbasg33
S'spokenlanguageof'
p213
sg35
I01
sa(dp214
g2
(lp215
g4
(g5
g6
Ntp216
Rp217
(dp218
g10
Vwhat
p219
sg12
VWhat
p220
sg14
VWP
p221
sg16
Nsbag4
(g5
g6
Ntp222
Rp223
(dp224
g10
Vbe
p225
sg12
Vis
p226
sg14
VVBZ
p227
sg16
Nsbag4
(g5
g6
Ntp228
Rp229
(dp230
g10
Vthe
p231
sg12
g231
sg14
VDT
p232
sg16
Nsbag4
(g5
g6
Ntp233
Rp234
(dp235
g10
Vspeak
p236
sg12
Vspoken
p237
sg14
VVBN
p238
sg16
Nsbag4
(g5
g6
Ntp239
Rp240
(dp241
g10
Vlanguage
p242
sg12
g242
sg14
VNN
p243
sg16
Nsbag4
(g5
g6
Ntp244
Rp245
(dp246
g10
Vin
p247
sg12
g247
sg14
VIN
p248
sg16
Nsbag4
(g5
g6
Ntp249
Rp250
(dp251
g10
Vrussia
p252
sg12
VRussia
p253
sg14
VNNP
p254
sg16
Nsbag4
(g5
g6
Ntp255
Rp256
(dp257
g10
g59
sg12
g59
sg14
g60
sg16
Nsbasg33
S'spokenlanguageof'
p258
sg35
I01
sa(dp259
g2
(lp260
g4
(g5
g6
Ntp261
Rp262
(dp263
g10
Vwhat
p264
sg12
VWhat
p265
sg14
VWP
p266
sg16
Nsbag4
(g5
g6
Ntp267
Rp268
(dp269
g10
Vbe
p270
sg12
Vis
p271
sg14
VVBZ
p272
sg16
Nsbag4
(g5
g6
Ntp273
Rp274
(dp275
g10
Vthe
p276
sg12
g276
sg14
VDT
p277
sg16
Nsbag4
(g5
g6
Ntp278
Rp279
(dp280
g10
Vpopulation
p281
sg12
g281
sg14
VNN
p282
sg16
Nsbag4
(g5
g6
Ntp283
Rp284
(dp285
g10
Vof
p286
sg12
g286
sg14
VIN
p287
sg16
Nsbag4
(g5
g6
Ntp288
Rp289
(dp290
g10
Vchina
p291
sg12
VChina
p292
sg14
VNNP
p293
sg16
Nsbag4
(g5
g6
Ntp294
Rp295
(dp296
g10
g59
sg12
g59
sg14
g60
sg16
Nsbasg33
S'populationof'
p297
sg35
I01
sa(dp298
g2
(lp299
g4
(g5
g6
Ntp300
Rp301
(dp302
g10
Vhow
p303
sg12
g303
sg14
VWRB
p304
sg16
Nsbag4
(g5
g6
Ntp305
Rp306
(dp307
g10
Vmany
p308
sg12
g308
sg14
VJJ
p309
sg16
Nsbag4
(g5
g6
Ntp310
Rp311
(dp312
g10
Vpeople
p313
sg12
g313
sg14
VNNS
p314
sg16
Nsbag4
(g5
g6
Ntp315
Rp316
(dp317
g10
Vlive
p318
sg12
g318
sg14
VVBP
p319
sg16
Nsbag4
(g5
g6
Ntp320
Rp321
(dp322
g10
Vin
p323
sg12
g323
sg14
VIN
p324
sg16
Nsbag4
(g5
g6
Ntp325
Rp326
(dp327
g10
Vaustralia
p328
sg12
VAustralia
p329
sg14
VNNP
p330
sg16
Nsbag4
(g5
g6
Ntp331
Rp332
(dp333
g10
g59
sg12
g59
sg14
g60
sg16
Nsbasg33
S'populationof'
p334
sg35
I01
sa(dp335
g2
(lp336
g4
(g5
g6
Ntp337
Rp338
(dp339
g10
Vlist
p340
sg12
VList
p341
sg14
VNNP
p342
sg16
Nsbag4
(g5
g6
Ntp343
Rp344
(dp345
g10
Vmovie
p346
sg12
Vmovies
p347
sg14
VNNS
p348
sg16
Nsbasg33
S'listmovies'
p349
sg35
I01
sa(dp350
g2
(lp351
g4
(g5
g6
Ntp352
Rp353
(dp354
g10
Vlist
p355
sg12
VList
p356
sg14
VNNP
p357
sg16
Nsbag4
(g5
g6
Ntp358
Rp359
(dp360
g10
Vmovie
p361
sg12
Vmovies
p362
sg14
VNNS
p363
sg16
Nsbag4
(g5
g6
Ntp364
Rp365
(dp366
g10
Vdirect
p367
sg12
Vdirected
p368
sg14
VVBD
p369
sg16
Nsbag4
(g5
g6
Ntp370
Rp371
(dp372
g10
Vby
p373
sg12
g373
sg14
VIN
p374
sg16
Nsbag4
(g5
g6
Ntp375
Rp376
(dp377
g10
Vquentin
p378
sg12
VQuentin
p379
sg14
VNNP
p380
sg16
Nsbag4
(g5
g6
Ntp381
Rp382
(dp383
g10
Vtarantino
p384
sg12
VTarantino
p385
sg14
VNNP
p386
sg16
Nsbag4
(g5
g6
Ntp387
Rp388
(dp389
g10
g60
sg12
g60
sg14
g60
sg16
Nsbasg33
S'moviesbydirector'
p390
sg35
I01
sa(dp391
g2
(lp392
g4
(g5
g6
Ntp393
Rp394
(dp395
g10
Vmovie
p396
sg12
Vmovies
p397
sg14
VNNS
p398
sg16
Nsbag4
(g5
g6
Ntp399
Rp400
(dp401
g10
Vdirect
p402
sg12
Vdirected
p403
sg14
VVBD
p404
sg16
Nsbag4
(g5
g6
Ntp405
Rp406
(dp407
g10
Vby
p408
sg12
g408
sg14
VIN
p409
sg16
Nsbag4
(g5
g6
Ntp410
Rp411
(dp412
g10
Vmartin
p413
sg12
VMartin
p414
sg14
VNNP
p415
sg16
Nsbag4
(g5
g6
Ntp416
Rp417
(dp418
g10
Vscorsese
p419
sg12
VScorsese
p420
sg14
VNNP
p421
sg16
Nsbasg33
S'moviesbydirector'
p422
sg35
I01
sa(dp423
g2
(lp424
g4
(g5
g6
Ntp425
Rp426
(dp427
g10
Vwhich
p428
sg12
g428
sg14
VWDT
p429
sg16
Nsbag4
(g5
g6
Ntp430
Rp431
(dp432
g10
Vmovie
p433
sg12
Vmovies
p434
sg14
VNNS
p435
sg16
Nsbag4
(g5
g6
Ntp436
Rp437
(dp438
g10
Vdo
p439
sg12
Vdid
p440
sg14
VVBD
p441
sg16
Nsbag4
(g5
g6
Ntp442
Rp443
(dp444
g10
Vmel
p445
sg12
VMel
p446
sg14
VNNP
p447
sg16
Nsbag4
(g5
g6
Ntp448
Rp449
(dp450
g10
Vgibson
p451
sg12
VGibson
p452
sg14
VNNP
p453
sg16
Nsbag4
(g5
g6
Ntp454
Rp455
(dp456
g10
Vdirect
p457
sg12
Vdirected
p458
sg14
VVBD
p459
sg16
Nsbasg33
S'moviesbydirector'
p460
sg35
I01
sa(dp461
g2
(lp462
g4
(g5
g6
Ntp463
Rp464
(dp465
g10
Vhow
p466
sg12
VHow
p467
sg14
VWRB
p468
sg16
Nsbag4
(g5
g6
Ntp469
Rp470
(dp471
g10
Vlong
p472
sg12
g472
sg14
VJJ
p473
sg16
Nsbag4
(g5
g6
Ntp474
Rp475
(dp476
g10
Vbe
p477
sg12
Vis
p478
sg14
VVBZ
p479
sg16
Nsbag4
(g5
g6
Ntp480
Rp481
(dp482
g10
Vpulp
p483
sg12
VPulp
p484
sg14
VNNP
p485
sg16
Nsbag4
(g5
g6
Ntp486
Rp487
(dp488
g10
Vfiction
p489
sg12
VFiction
p490
sg14
VNNP
p491
sg16
Nsbasg33
S'movieduration'
p492
sg35
I01
sa(dp493
g2
(lp494
g4
(g5
g6
Ntp495
Rp496
(dp497
g10
Vwhat
p498
sg12
VWhat
p499
sg14
VWP
p500
sg16
Nsbag4
(g5
g6
Ntp501
Rp502
(dp503
g10
Vbe
p504
sg12
Vis
p505
sg14
VVBZ
p506
sg16
Nsbag4
(g5
g6
Ntp507
Rp508
(dp509
g10
Vthe
p510
sg12
g510
sg14
VDT
p511
sg16
Nsbag4
(g5
g6
Ntp512
Rp513
(dp514
g10
Vduration
p515
sg12
g515
sg14
VNN
p516
sg16
Nsbag4
(g5
g6
Ntp517
Rp518
(dp519
g10
Vof
p520
sg12
g520
sg14
VIN
p521
sg16
Nsbag4
(g5
g6
Ntp522
Rp523
(dp524
g10
Vthe
p525
sg12
VThe
p526
sg14
VDT
p527
sg16
Nsbag4
(g5
g6
Ntp528
Rp529
(dp530
g10
Vthin
p531
sg12
VThin
p532
sg14
VNNP
p533
sg16
Nsbag4
(g5
g6
Ntp534
Rp535
(dp536
g10
Vred
p537
sg12
VRed
p538
sg14
VNNP
p539
sg16
Nsbag4
(g5
g6
Ntp540
Rp541
(dp542
g10
Vline
p543
sg12
VLine
p544
sg14
VNNP
p545
sg16
Nsbag4
(g5
g6
Ntp546
Rp547
(dp548
g10
g59
sg12
g59
sg14
g60
sg16
Nsbasg33
S'movieduration'
p549
sg35
I01
sa(dp550
g2
(lp551
g4
(g5
g6
Ntp552
Rp553
(dp554
g10
Vlist
p555
sg12
VList
p556
sg14
VNNP
p557
sg16
Nsbag4
(g5
g6
Ntp558
Rp559
(dp560
g10
Vmovie
p561
sg12
Vmovies
p562
sg14
VNNS
p563
sg16
Nsbag4
(g5
g6
Ntp564
Rp565
(dp566
g10
Vwith
p567
sg12
g567
sg14
VIN
p568
sg16
Nsbag4
(g5
g6
Ntp569
Rp570
(dp571
g10
Vhugh
p572
sg12
VHugh
p573
sg14
VNNP
p574
sg16
Nsbag4
(g5
g6
Ntp575
Rp576
(dp577
g10
Vlaurie
p578
sg12
VLaurie
p579
sg14
VNNP
p580
sg16
Nsbasg33
S'actedon'
p581
sg35
I01
sa(dp582
g2
(lp583
g4
(g5
g6
Ntp584
Rp585
(dp586
g10
Vmovies
p587
sg12
VMovies
p588
sg14
VNNS
p589
sg16
Nsbag4
(g5
g6
Ntp590
Rp591
(dp592
g10
Vwith
p593
sg12
g593
sg14
VIN
p594
sg16
Nsbag4
(g5
g6
Ntp595
Rp596
(dp597
g10
Vmatt
p598
sg12
VMatt
p599
sg14
VNNP
p600
sg16
Nsbag4
(g5
g6
Ntp601
Rp602
(dp603
g10
Vleblanc
p604
sg12
VLeBlanc
p605
sg14
VNNP
p606
sg16
Nsbasg33
S'actedon'
p607
sg35
I01
sa(dp608
g2
(lp609
g4
(g5
g6
Ntp610
Rp611
(dp612
g10
Vin
p613
sg12
VIn
p614
sg14
VIN
p615
sg16
Nsbag4
(g5
g6
Ntp616
Rp617
(dp618
g10
Vwhat
p619
sg12
g619
sg14
VWP
p620
sg16
Nsbag4
(g5
g6
Ntp621
Rp622
(dp623
g10
Vmovie
p624
sg12
Vmovies
p625
sg14
VNNS
p626
sg16
Nsbag4
(g5
g6
Ntp627
Rp628
(dp629
g10
Vdo
p630
sg12
Vdid
p631
sg14
VVBD
p632
sg16
Nsbag4
(g5
g6
Ntp633
Rp634
(dp635
g10
Vjennifer
p636
sg12
VJennifer
p637
sg14
VNNP
p638
sg16
Nsbag4
(g5
g6
Ntp639
Rp640
(dp641
g10
Vaniston
p642
sg12
VAniston
p643
sg14
VNNP
p644
sg16
Nsbag4
(g5
g6
Ntp645
Rp646
(dp647
g10
Vappear
p648
sg12
g648
sg14
VNN
p649
sg16
Nsbag4
(g5
g6
Ntp650
Rp651
(dp652
g10
g59
sg12
g59
sg14
g60
sg16
Nsbasg33
S'actedon'
p653
sg35
I01
sa(dp654
g2
(lp655
g4
(g5
g6
Ntp656
Rp657
(dp658
g10
Vwhich
p659
sg12
VWhich
p660
sg14
VWDT
p661
sg16
Nsbag4
(g5
g6
Ntp662
Rp663
(dp664
g10
Vmovie
p665
sg12
Vmovies
p666
sg14
VNNS
p667
sg16
Nsbag4
(g5
g6
Ntp668
Rp669
(dp670
g10
Vdo
p671
sg12
Vdid
p672
sg14
VVBD
p673
sg16
Nsbag4
(g5
g6
Ntp674
Rp675
(dp676
g10
Vmel
p677
sg12
VMel
p678
sg14
VNNP
p679
sg16
Nsbag4
(g5
g6
Ntp680
Rp681
(dp682
g10
Vgibson
p683
sg12
VGibson
p684
sg14
VNNP
p685
sg16
Nsbag4
(g5
g6
Ntp686
Rp687
(dp688
g10
Vstar
p689
sg12
Vstarred
p690
sg14
VVBD
p691
sg16
Nsbag4
(g5
g6
Ntp692
Rp693
(dp694
g10
g59
sg12
g59
sg14
g60
sg16
Nsbasg33
S'actedon'
p695
sg35
I01
sa(dp696
g2
(lp697
g4
(g5
g6
Ntp698
Rp699
(dp700
g10
Vmovies
p701
sg12
VMovies
p702
sg14
VNNS
p703
sg16
Nsbag4
(g5
g6
Ntp704
Rp705
(dp706
g10
Vstar
p707
sg12
Vstarring
p708
sg14
VVBG
p709
sg16
Nsbag4
(g5
g6
Ntp710
Rp711
(dp712
g10
Vwinona
p713
sg12
VWinona
p714
sg14
VNNP
p715
sg16
Nsbag4
(g5
g6
Ntp716
Rp717
(dp718
g10
Vryder
p719
sg12
VRyder
p720
sg14
VNNP
p721
sg16
Nsbasg33
S'actedon'
p722
sg35
I01
sa(dp723
g2
(lp724
g4
(g5
g6
Ntp725
Rp726
(dp727
g10
Vwhen
p728
sg12
g728
sg14
VWRB
p729
sg16
Nsbag4
(g5
g6
Ntp730
Rp731
(dp732
g10
Vbe
p733
sg12
Vwas
p734
sg14
VVBD
p735
sg16
Nsbag4
(g5
g6
Ntp736
Rp737
(dp738
g10
Vgravity
p739
sg12
g739
sg14
VNN
p740
sg16
Nsbag4
(g5
g6
Ntp741
Rp742
(dp743
g10
Vrelease
p744
sg12
Vreleased
p745
sg14
VVBN
p746
sg16
Nsbag4
(g5
g6
Ntp747
Rp748
(dp749
g10
g59
sg12
g59
sg14
g60
sg16
Nsbasg33
S'moviereleasedate'
p750
sg35
I01
sa(dp751
g2
(lp752
g4
(g5
g6
Ntp753
Rp754
(dp755
g10
Vrelease
p756
sg12
g756
sg14
VNN
p757
sg16
Nsbag4
(g5
g6
Ntp758
Rp759
(dp760
g10
Vdate
p761
sg12
g761
sg14
VNN
p762
sg16
Nsbag4
(g5
g6
Ntp763
Rp764
(dp765
g10
Vof
p766
sg12
g766
sg14
VIN
p767
sg16
Nsbag4
(g5
g6
Ntp768
Rp769
(dp770
g10
Vthe
p771
sg12
g771
sg14
VDT
p772
sg16
Nsbag4
(g5
g6
Ntp773
Rp774
(dp775
g10
Vhobbit
p776
sg12
g776
sg14
VNN
p777
sg16
Nsbag4
(g5
g6
Ntp778
Rp779
(dp780
g10
g59
sg12
g59
sg14
g60
sg16
Nsbasg33
S'moviereleasedate'
p781
sg35
I01
sa(dp782
g2
(lp783
g4
(g5
g6
Ntp784
Rp785
(dp786
g10
Vwho
p787
sg12
VWho
p788
sg14
VWP
p789
sg16
Nsbag4
(g5
g6
Ntp790
Rp791
(dp792
g10
Vbe
p793
sg12
Vis
p794
sg14
VVBZ
p795
sg16
Nsbag4
(g5
g6
Ntp796
Rp797
(dp798
g10
Vthe
p799
sg12
g799
sg14
VDT
p800
sg16
Nsbag4
(g5
g6
Ntp801
Rp802
(dp803
g10
Vdirector
p804
sg12
g804
sg14
VNN
p805
sg16
Nsbag4
(g5
g6
Ntp806
Rp807
(dp808
g10
Vof
p809
sg12
g809
sg14
VIN
p810
sg16
Nsbag4
(g5
g6
Ntp811
Rp812
(dp813
g10
Vbig
p814
sg12
VBig
p815
sg14
VNNP
p816
sg16
Nsbag4
(g5
g6
Ntp817
Rp818
(dp819
g10
Vfish
p820
sg12
VFish
p821
sg14
VNNP
p822
sg16
Nsbag4
(g5
g6
Ntp823
Rp824
(dp825
g10
g59
sg12
g59
sg14
g60
sg16
Nsbasg33
S'directorof'
p826
sg35
I01
sa(dp827
g2
(lp828
g4
(g5
g6
Ntp829
Rp830
(dp831
g10
Vwho
p832
sg12
g832
sg14
VWP
p833
sg16
Nsbag4
(g5
g6
Ntp834
Rp835
(dp836
g10
Vdirect
p837
sg12
Vdirected
p838
sg14
VVBN
p839
sg16
Nsbag4
(g5
g6
Ntp840
Rp841
(dp842
g10
Vpocahontas
p843
sg12
VPocahontas
p844
sg14
VNNP
p845
sg16
Nsbag4
(g5
g6
Ntp846
Rp847
(dp848
g10
g59
sg12
g59
sg14
g60
sg16
Nsbasg33
S'directorof'
p849
sg35
I01
sa(dp850
g2
(lp851
g4
(g5
g6
Ntp852
Rp853
(dp854
g10
Vwho
p855
sg12
g855
sg14
VWP
p856
sg16
Nsbag4
(g5
g6
Ntp857
Rp858
(dp859
g10
Vbe
p860
sg12
Vare
p861
sg14
VVBP
p862
sg16
Nsbag4
(g5
g6
Ntp863
Rp864
(dp865
g10
Vthe
p866
sg12
g866
sg14
VDT
p867
sg16
Nsbag4
(g5
g6
Ntp868
Rp869
(dp870
g10
Vactor
p871
sg12
Vactors
p872
sg14
VNNS
p873
sg16
Nsbag4
(g5
g6
Ntp874
Rp875
(dp876
g10
Vof
p877
sg12
g877
sg14
VIN
p878
sg16
Nsbag4
(g5
g6
Ntp879
Rp880
(dp881
g10
Vtitanic
p882
sg12
VTitanic
p883
sg14
VNNP
p884
sg16
Nsbag4
(g5
g6
Ntp885
Rp886
(dp887
g10
g59
sg12
g59
sg14
g60
sg16
Nsbasg33
S'actorsof'
p888
sg35
I01
sa(dp889
g2
(lp890
g4
(g5
g6
Ntp891
Rp892
(dp893
g10
Vwho
p894
sg12
g894
sg14
VWP
p895
sg16
Nsbag4
(g5
g6
Ntp896
Rp897
(dp898
g10
Vact
p899
sg12
Vacted
p900
sg14
VVBN
p901
sg16
Nsbag4
(g5
g6
Ntp902
Rp903
(dp904
g10
Vin
p905
sg12
g905
sg14
VIN
p906
sg16
Nsbag4
(g5
g6
Ntp907
Rp908
(dp909
g10
Valien
p910
sg12
VAlien
p911
sg14
VNNP
p912
sg16
Nsbag4
(g5
g6
Ntp913
Rp914
(dp915
g10
g59
sg12
g59
sg14
g60
sg16
Nsbasg33
S'actorsof'
p916
sg35
I01
sa(dp917
g2
(lp918
g4
(g5
g6
Ntp919
Rp920
(dp921
g10
Vwho
p922
sg12
g922
sg14
VWP
p923
sg16
Nsbag4
(g5
g6
Ntp924
Rp925
(dp926
g10
Vstar
p927
sg12
Vstarred
p928
sg14
VVBN
p929
sg16
Nsbag4
(g5
g6
Ntp930
Rp931
(dp932
g10
Vin
p933
sg12
g933
sg14
VIN
p934
sg16
Nsbag4
(g5
g6
Ntp935
Rp936
(dp937
g10
Vdepredator
p938
sg12
VDepredator
p939
sg14
VNNP
p940
sg16
Nsbag4
(g5
g6
Ntp941
Rp942
(dp943
g10
g59
sg12
g59
sg14
g60
sg16
Nsbasg33
S'actorsof'
p944
sg35
I01
sa(dp945
g2
(lp946
g4
(g5
g6
Ntp947
Rp948
(dp949
g10
Vactors
p950
sg12
VActors
p951
sg14
VNNS
p952
sg16
Nsbag4
(g5
g6
Ntp953
Rp954
(dp955
g10
Vof
p956
sg12
g956
sg14
VIN
p957
sg16
Nsbag4
(g5
g6
Ntp958
Rp959
(dp960
g10
Vfight
p961
sg12
VFight
p962
sg14
VNNP
p963
sg16
Nsbag4
(g5
g6
Ntp964
Rp965
(dp966
g10
Vclub
p967
sg12
VClub
p968
sg14
VNNP
p969
sg16
Nsbasg33
S'actorsof'
p970
sg35
I01
sa(dp971
g2
(lp972
g4
(g5
g6
Ntp973
Rp974
(dp975
g10
Vwhat
p976
sg12
g976
sg14
VWP
p977
sg16
Nsbag4
(g5
g6
Ntp978
Rp979
(dp980
g10
Vbe
p981
sg12
Vis
p982
sg14
VVBZ
p983
sg16
Nsbag4
(g5
g6
Ntp984
Rp985
(dp986
g10
Vthe
p987
sg12
g987
sg14
VDT
p988
sg16
Nsbag4
(g5
g6
Ntp989
Rp990
(dp991
g10
Vplot
p992
sg12
g992
sg14
VNN
p993
sg16
Nsbag4
(g5
g6
Ntp994
Rp995
(dp996
g10
Vof
p997
sg12
g997
sg14
VIN
p998
sg16
Nsbag4
(g5
g6
Ntp999
Rp1000
(dp1001
g10
Vtitanic
p1002
sg12
VTitanic
p1003
sg14
VNNP
p1004
sg16
Nsbasg33
S'plotof'
p1005
sg35
I01
sa(dp1006
g2
(lp1007
g4
(g5
g6
Ntp1008
Rp1009
(dp1010
g10
Vwhat
p1011
sg12
g1011
sg14
VWP
p1012
sg16
Nsbag4
(g5
g6
Ntp1013
Rp1014
(dp1015
g10
Vbe
p1016
sg12
Vwas
p1017
sg14
VVBD
p1018
sg16
Nsbag4
(g5
g6
Ntp1019
Rp1020
(dp1021
g10
Vsherk
p1022
sg12
VSherk
p1023
sg14
VNNP
p1024
sg16
Nsbag4
(g5
g6
Ntp1025
Rp1026
(dp1027
g10
Vabout
p1028
sg12
g1028
sg14
VIN
p1029
sg16
Nsbag4
(g5
g6
Ntp1030
Rp1031
(dp1032
g10
g59
sg12
g59
sg14
g60
sg16
Nsbasg33
S'plotof'
p1033
sg35
I01
sa(dp1034
g2
(lp1035
g4
(g5
g6
Ntp1036
Rp1037
(dp1038
g10
Vradiohead
p1039
sg12
VRadiohead
p1040
sg14
VNNP
p1041
sg16
Nsbag4
(g5
g6
Ntp1042
Rp1043
(dp1044
g10
Vmember
p1045
sg12
Vmembers
p1046
sg14
VNNS
p1047
sg16
Nsbasg33
S'bandmembers'
p1048
sg35
I01
sa(dp1049
g2
(lp1050
g4
(g5
g6
Ntp1051
Rp1052
(dp1053
g10
Vwhat
p1054
sg12
VWhat
p1055
sg14
VWP
p1056
sg16
Nsbag4
(g5
g6
Ntp1057
Rp1058
(dp1059
g10
Vbe
p1060
sg12
Vare
p1061
sg14
VVBP
p1062
sg16
Nsbag4
(g5
g6
Ntp1063
Rp1064
(dp1065
g10
Vthe
p1066
sg12
g1066
sg14
VDT
p1067
sg16
Nsbag4
(g5
g6
Ntp1068
Rp1069
(dp1070
g10
Vmember
p1071
sg12
Vmembers
p1072
sg14
VNNS
p1073
sg16
Nsbag4
(g5
g6
Ntp1074
Rp1075
(dp1076
g10
Vof
p1077
sg12
g1077
sg14
VIN
p1078
sg16
Nsbag4
(g5
g6
Ntp1079
Rp1080
(dp1081
g10
Vmetallica
p1082
sg12
VMetallica
p1083
sg14
VNNP
p1084
sg16
Nsbag4
(g5
g6
Ntp1085
Rp1086
(dp1087
g10
g59
sg12
g59
sg14
g60
sg16
Nsbasg33
S'bandmembers'
p1088
sg35
I01
sa(dp1089
g2
(lp1090
g4
(g5
g6
Ntp1091
Rp1092
(dp1093
g10
Vwho
p1094
sg12
g1094
sg14
VWP
p1095
sg16
Nsbag4
(g5
g6
Ntp1096
Rp1097
(dp1098
g10
Vbe
p1099
sg12
Vwere
p1100
sg14
VVBD
p1101
sg16
Nsbag4
(g5
g6
Ntp1102
Rp1103
(dp1104
g10
Vthe
p1105
sg12
g1105
sg14
VDT
p1106
sg16
Nsbag4
(g5
g6
Ntp1107
Rp1108
(dp1109
g10
Vmember
p1110
sg12
Vmembers
p1111
sg14
VNNS
p1112
sg16
Nsbag4
(g5
g6
Ntp1113
Rp1114
(dp1115
g10
Vof
p1116
sg12
g1116
sg14
VIN
p1117
sg16
Nsbag4
(g5
g6
Ntp1118
Rp1119
(dp1120
g10
Vpink
p1121
sg12
g1121
sg14
VNN
p1122
sg16
Nsbag4
(g5
g6
Ntp1123
Rp1124
(dp1125
g10
Vfloyd
p1126
sg12
g1126
sg14
VNN
p1127
sg16
Nsbag4
(g5
g6
Ntp1128
Rp1129
(dp1130
g10
g59
sg12
g59
sg14
g60
sg16
Nsbasg33
S'bandmembers'
p1131
sg35
I01
sa(dp1132
g2
(lp1133
g4
(g5
g6
Ntp1134
Rp1135
(dp1136
g10
Vwhen
p1137
sg12
VWhen
p1138
sg14
VWRB
p1139
sg16
Nsbag4
(g5
g6
Ntp1140
Rp1141
(dp1142
g10
Vbe
p1143
sg12
Vwas
p1144
sg14
VVBD
p1145
sg16
Nsbag4
(g5
g6
Ntp1146
Rp1147
(dp1148
g10
Vkorn
p1149
sg12
VKorn
p1150
sg14
VNNP
p1151
sg16
Nsbag4
(g5
g6
Ntp1152
Rp1153
(dp1154
g10
Vform
p1155
sg12
Vformed
p1156
sg14
VVBN
p1157
sg16
Nsbag4
(g5
g6
Ntp1158
Rp1159
(dp1160
g10
g59
sg12
g59
sg14
g60
sg16
Nsbasg33
S'bandfoundation'
p1161
sg35
I01
sa(dp1162
g2
(lp1163
g4
(g5
g6
Ntp1164
Rp1165
(dp1166
g10
Vwhat
p1167
sg12
VWhat
p1168
sg14
VWP
p1169
sg16
Nsbag4
(g5
g6
Ntp1170
Rp1171
(dp1172
g10
Vbe
p1173
sg12
Vis
p1174
sg14
VVBZ
p1175
sg16
Nsbag4
(g5
g6
Ntp1176
Rp1177
(dp1178
g10
Vthe
p1179
sg12
g1179
sg14
VDT
p1180
sg16
Nsbag4
(g5
g6
Ntp1181
Rp1182
(dp1183
g10
Vmusic
p1184
sg12
g1184
sg14
VJJ
p1185
sg16
Nsbag4
(g5
g6
Ntp1186
Rp1187
(dp1188
g10
Vgenre
p1189
sg12
g1189
sg14
VNN
p1190
sg16
Nsbag4
(g5
g6
Ntp1191
Rp1192
(dp1193
g10
Vof
p1194
sg12
g1194
sg14
VIN
p1195
sg16
Nsbag4
(g5
g6
Ntp1196
Rp1197
(dp1198
g10
Vgorillaz
p1199
sg12
VGorillaz
p1200
sg14
VNNP
p1201
sg16
Nsbag4
(g5
g6
Ntp1202
Rp1203
(dp1204
g10
g59
sg12
g59
sg14
g60
sg16
Nsbasg33
S'musicgenre'
p1205
sg35
I01
sa(dp1206
g2
(lp1207
g4
(g5
g6
Ntp1208
Rp1209
(dp1210
g10
Vmusic
p1211
sg12
VMusic
p1212
sg14
VNNP
p1213
sg16
Nsbag4
(g5
g6
Ntp1214
Rp1215
(dp1216
g10
Vgenre
p1217
sg12
g1217
sg14
VVBD
p1218
sg16
Nsbag4
(g5
g6
Ntp1219
Rp1220
(dp1221
g10
Vof
p1222
sg12
g1222
sg14
VIN
p1223
sg16
Nsbag4
(g5
g6
Ntp1224
Rp1225
(dp1226
g10
Vradiohead
p1227
sg12
VRadiohead
p1228
sg14
VNNP
p1229
sg16
Nsbasg33
S'musicgenre'
p1230
sg35
I01
sa(dp1231
g2
(lp1232
g4
(g5
g6
Ntp1233
Rp1234
(dp1235
g10
Vlist
p1236
sg12
VList
p1237
sg14
VNNP
p1238
sg16
Nsbag4
(g5
g6
Ntp1239
Rp1240
(dp1241
g10
Valbum
p1242
sg12
Valbums
p1243
sg14
VNNS
p1244
sg16
Nsbag4
(g5
g6
Ntp1245
Rp1246
(dp1247
g10
Vof
p1248
sg12
g1248
sg14
VIN
p1249
sg16
Nsbag4
(g5
g6
Ntp1250
Rp1251
(dp1252
g10
Vpink
p1253
sg12
VPink
p1254
sg14
VNNP
p1255
sg16
Nsbag4
(g5
g6
Ntp1256
Rp1257
(dp1258
g10
Vfloyd
p1259
sg12
VFloyd
p1260
sg14
VNNP
p1261
sg16
Nsbasg33
S'albumsofband'
p1262
sg35
I01
sa(dp1263
g2
(lp1264
g4
(g5
g6
Ntp1265
Rp1266
(dp1267
g10
Vwhat
p1268
sg12
VWhat
p1269
sg14
VWP
p1270
sg16
Nsbag4
(g5
g6
Ntp1271
Rp1272
(dp1273
g10
Valbum
p1274
sg12
Valbums
p1275
sg14
VNNS
p1276
sg16
Nsbag4
(g5
g6
Ntp1277
Rp1278
(dp1279
g10
Vdo
p1280
sg12
Vdid
p1281
sg14
VVBD
p1282
sg16
Nsbag4
(g5
g6
Ntp1283
Rp1284
(dp1285
g10
Vpearl
p1286
sg12
VPearl
p1287
sg14
VNNP
p1288
sg16
Nsbag4
(g5
g6
Ntp1289
Rp1290
(dp1291
g10
Vjam
p1292
sg12
VJam
p1293
sg14
VNNP
p1294
sg16
Nsbag4
(g5
g6
Ntp1295
Rp1296
(dp1297
g10
Vrecord
p1298
sg12
g1298
sg14
VNN
p1299
sg16
Nsbag4
(g5
g6
Ntp1300
Rp1301
(dp1302
g10
g59
sg12
g59
sg14
g60
sg16
Nsbasg33
S'albumsofband'
p1303
sg35
I01
sa(dp1304
g2
(lp1305
g4
(g5
g6
Ntp1306
Rp1307
(dp1308
g10
Valbums
p1309
sg12
VAlbums
p1310
sg14
VNNS
p1311
sg16
Nsbag4
(g5
g6
Ntp1312
Rp1313
(dp1314
g10
Vby
p1315
sg12
g1315
sg14
VIN
p1316
sg16
Nsbag4
(g5
g6
Ntp1317
Rp1318
(dp1319
g10
Vmetallica
p1320
sg12
VMetallica
p1321
sg14
VNNP
p1322
sg16
Nsbasg33
S'albumsofband'
p1323
sg35
I01
sa(dp1324
g2
(lp1325
g4
(g5
g6
Ntp1326
Rp1327
(dp1328
g10
Vwhat
p1329
sg12
g1329
sg14
VWP
p1330
sg16
Nsbag4
(g5
g6
Ntp1331
Rp1332
(dp1333
g10
Valbum
p1334
sg12
Valbums
p1335
sg14
VNNS
p1336
sg16
Nsbag4
(g5
g6
Ntp1337
Rp1338
(dp1339
g10
Vdo
p1340
sg12
Vdid
p1341
sg14
VVBD
p1342
sg16
Nsbag4
(g5
g6
Ntp1343
Rp1344
(dp1345
g10
Vthe
p1346
sg12
VThe
p1347
sg14
VDT
p1348
sg16
Nsbag4
(g5
g6
Ntp1349
Rp1350
(dp1351
g10
Vbeatles
p1352
sg12
VBeatles
p1353
sg14
VNNP
p1354
sg16
Nsbag4
(g5
g6
Ntp1355
Rp1356
(dp1357
g10
Vmake
p1358
sg12
g1358
sg14
VVBP
p1359
sg16
Nsbag4
(g5
g6
Ntp1360
Rp1361
(dp1362
g10
g59
sg12
g59
sg14
g60
sg16
Nsbasg33
S'albumsofband'
p1363
sg35
I01
sa(dp1364
g2
(lp1365
g4
(g5
g6
Ntp1366
Rp1367
(dp1368
g10
Vwho
p1369
sg12
VWho
p1370
sg14
VWP
p1371
sg16
Nsbag4
(g5
g6
Ntp1372
Rp1373
(dp1374
g10
Vbe
p1375
sg12
Vis
p1376
sg14
VVBZ
p1377
sg16
Nsbag4
(g5
g6
Ntp1378
Rp1379
(dp1380
g10
Vtom
p1381
sg12
VTom
p1382
sg14
VNNP
p1383
sg16
Nsbag4
(g5
g6
Ntp1384
Rp1385
(dp1386
g10
Vcruise
p1387
sg12
VCruise
p1388
sg14
VNNP
p1389
sg16
Nsbag4
(g5
g6
Ntp1390
Rp1391
(dp1392
g10
g59
sg12
g59
sg14
g60
sg16
Nsbasg33
S'whois'
p1393
sg35
I01
sa(dp1394
g2
(lp1395
g4
(g5
g6
Ntp1396
Rp1397
(dp1398
g10
Vhow
p1399
sg12
VHow
p1400
sg14
VWRB
p1401
sg16
Nsbag4
(g5
g6
Ntp1402
Rp1403
(dp1404
g10
Vold
p1405
sg12
g1405
sg14
VJJ
p1406
sg16
Nsbag4
(g5
g6
Ntp1407
Rp1408
(dp1409
g10
Vbe
p1410
sg12
Vis
p1411
sg14
VVBZ
p1412
sg16
Nsbag4
(g5
g6
Ntp1413
Rp1414
(dp1415
g10
Vbob
p1416
sg12
VBob
p1417
sg14
VNNP
p1418
sg16
Nsbag4
(g5
g6
Ntp1419
Rp1420
(dp1421
g10
Vdylan
p1422
sg12
VDylan
p1423
sg14
VNNP
p1424
sg16
Nsbasg33
S'howoldis'
p1425
sg35
I01
sa(dp1426
g2
(lp1427
g4
(g5
g6
Ntp1428
Rp1429
(dp1430
g10
Vwhere
p1431
sg12
VWhere
p1432
sg14
VWRB
p1433
sg16
Nsbag4
(g5
g6
Ntp1434
Rp1435
(dp1436
g10
Vbe
p1437
sg12
Vis
p1438
sg14
VVBZ
p1439
sg16
Nsbag4
(g5
g6
Ntp1440
Rp1441
(dp1442
g10
Vbill
p1443
sg12
VBill
p1444
sg14
VNNP
p1445
sg16
Nsbag4
(g5
g6
Ntp1446
Rp1447
(dp1448
g10
Vgates
p1449
sg12
VGates
p1450
sg14
VNNP
p1451
sg16
Nsbag4
(g5
g6
Ntp1452
Rp1453
(dp1454
g10
Vfrom
p1455
sg12
g1455
sg14
VIN
p1456
sg16
Nsbag4
(g5
g6
Ntp1457
Rp1458
(dp1459
g10
g59
sg12
g59
sg14
g60
sg16
Nsbasg33
S'whereisfrom'
p1460
sg35
I01
sa(dp1461
g2
(lp1462
g4
(g5
g6
Ntp1463
Rp1464
(dp1465
g10
Vwhat
p1466
sg12
VWhat
p1467
sg14
VWP
p1468
sg16
Nsbag4
(g5
g6
Ntp1469
Rp1470
(dp1471
g10
Vbe
p1472
sg12
Vis
p1473
sg14
VVBZ
p1474
sg16
Nsbag4
(g5
g6
Ntp1475
Rp1476
(dp1477
g10
Vthe
p1478
sg12
g1478
sg14
VDT
p1479
sg16
Nsbag4
(g5
g6
Ntp1480
Rp1481
(dp1482
g10
Vcast
p1483
sg12
g1483
sg14
VNN
p1484
sg16
Nsbag4
(g5
g6
Ntp1485
Rp1486
(dp1487
g10
Vof
p1488
sg12
g1488
sg14
VIN
p1489
sg16
Nsbag4
(g5
g6
Ntp1490
Rp1491
(dp1492
g10
Vfriends
p1493
sg12
VFriends
p1494
sg14
VNNPS
p1495
sg16
Nsbag4
(g5
g6
Ntp1496
Rp1497
(dp1498
g10
g59
sg12
g59
sg14
g60
sg16
Nsbasg33
S'castof'
p1499
sg35
I01
sa(dp1500
g2
(lp1501
g4
(g5
g6
Ntp1502
Rp1503
(dp1504
g10
Vwho
p1505
sg12
VWho
p1506
sg14
VWP
p1507
sg16
Nsbag4
(g5
g6
Ntp1508
Rp1509
(dp1510
g10
Vworks
p1511
sg12
g1511
sg14
VNNS
p1512
sg16
Nsbag4
(g5
g6
Ntp1513
Rp1514
(dp1515
g10
Vin
p1516
sg12
g1516
sg14
VIN
p1517
sg16
Nsbag4
(g5
g6
Ntp1518
Rp1519
(dp1520
g10
Vbreaking
p1521
sg12
VBreaking
p1522
sg14
VNNP
p1523
sg16
Nsbag4
(g5
g6
Ntp1524
Rp1525
(dp1526
g10
Vbad
p1527
sg12
VBad
p1528
sg14
VNNP
p1529
sg16
Nsbag4
(g5
g6
Ntp1530
Rp1531
(dp1532
g10
g59
sg12
g59
sg14
g60
sg16
Nsbasg33
S'castof'
p1533
sg35
I01
sa(dp1534
g2
(lp1535
g4
(g5
g6
Ntp1536
Rp1537
(dp1538
g10
Vlist
p1539
sg12
VList
p1540
sg14
VNNP
p1541
sg16
Nsbag4
(g5
g6
Ntp1542
Rp1543
(dp1544
g10
Vactor
p1545
sg12
Vactors
p1546
sg14
VNNS
p1547
sg16
Nsbag4
(g5
g6
Ntp1548
Rp1549
(dp1550
g10
Vof
p1551
sg12
g1551
sg14
VIN
p1552
sg16
Nsbag4
(g5
g6
Ntp1553
Rp1554
(dp1555
g10
Vseinfeld
p1556
sg12
VSeinfeld
p1557
sg14
VNNP
p1558
sg16
Nsbasg33
S'castof'
p1559
sg35
I01
sa(dp1560
g2
(lp1561
g4
(g5
g6
Ntp1562
Rp1563
(dp1564
g10
Vlist
p1565
sg12
VList
p1566
sg14
VNNP
p1567
sg16
Nsbag4
(g5
g6
Ntp1568
Rp1569
(dp1570
g10
Vtv
p1571
sg12
VTV
p1572
sg14
VNN
p1573
sg16
Nsbag4
(g5
g6
Ntp1574
Rp1575
(dp1576
g10
Vshow
p1577
sg12
Vshows
p1578
sg14
VVBZ
p1579
sg16
Nsbasg33
S'listtvshows'
p1580
sg35
I01
sa(dp1581
g2
(lp1582
g4
(g5
g6
Ntp1583
Rp1584
(dp1585
g10
Vhow
p1586
sg12
VHow
p1587
sg14
VWRB
p1588
sg16
Nsbag4
(g5
g6
Ntp1589
Rp1590
(dp1591
g10
Vmany
p1592
sg12
g1592
sg14
VJJ
p1593
sg16
Nsbag4
(g5
g6
Ntp1594
Rp1595
(dp1596
g10
Vepisode
p1597
sg12
Vepisodes
p1598
sg14
VNNS
p1599
sg16
Nsbag4
(g5
g6
Ntp1600
Rp1601
(dp1602
g10
Vdo
p1603
sg12
Vdoes
p1604
sg14
VVBZ
p1605
sg16
Nsbag4
(g5
g6
Ntp1606
Rp1607
(dp1608
g10
Vseinfeld
p1609
sg12
VSeinfeld
p1610
sg14
VNNP
p1611
sg16
Nsbag4
(g5
g6
Ntp1612
Rp1613
(dp1614
g10
Vhave
p1615
sg12
g1615
sg14
VVB
p1616
sg16
Nsbag4
(g5
g6
Ntp1617
Rp1618
(dp1619
g10
g59
sg12
g59
sg14
g60
sg16
Nsbasg33
S'episodecount'
p1620
sg35
I01
sa(dp1621
g2
(lp1622
g4
(g5
g6
Ntp1623
Rp1624
(dp1625
g10
Vnumber
p1626
sg12
VNumber
p1627
sg14
VNNP
p1628
sg16
Nsbag4
(g5
g6
Ntp1629
Rp1630
(dp1631
g10
Vof
p1632
sg12
g1632
sg14
VIN
p1633
sg16
Nsbag4
(g5
g6
Ntp1634
Rp1635
(dp1636
g10
Vepisode
p1637
sg12
Vepisodes
p1638
sg14
VNNS
p1639
sg16
Nsbag4
(g5
g6
Ntp1640
Rp1641
(dp1642
g10
Vof
p1643
sg12
g1643
sg14
VIN
p1644
sg16
Nsbag4
(g5
g6
Ntp1645
Rp1646
(dp1647
g10
Vseinfeld
p1648
sg12
VSeinfeld
p1649
sg14
VNNP
p1650
sg16
Nsbasg33
S'episodecount'
p1651
sg35
I01
sa(dp1652
g2
(lp1653
g4
(g5
g6
Ntp1654
Rp1655
(dp1656
g10
Vlist
p1657
sg12
VList
p1658
sg14
VNNP
p1659
sg16
Nsbag4
(g5
g6
Ntp1660
Rp1661
(dp1662
g10
Vshow
p1663
sg12
Vshows
p1664
sg14
VVBZ
p1665
sg16
Nsbag4
(g5
g6
Ntp1666
Rp1667
(dp1668
g10
Vwith
p1669
sg12
g1669
sg14
VIN
p1670
sg16
Nsbag4
(g5
g6
Ntp1671
Rp1672
(dp1673
g10
Vhugh
p1674
sg12
VHugh
p1675
sg14
VNNP
p1676
sg16
Nsbag4
(g5
g6
Ntp1677
Rp1678
(dp1679
g10
Vlaurie
p1680
sg12
VLaurie
p1681
sg14
VNNP
p1682
sg16
Nsbasg33
S'showswith'
p1683
sg35
I01
sa(dp1684
g2
(lp1685
g4
(g5
g6
Ntp1686
Rp1687
(dp1688
g10
Vin
p1689
sg12
VIn
p1690
sg14
VIN
p1691
sg16
Nsbag4
(g5
g6
Ntp1692
Rp1693
(dp1694
g10
Vwhat
p1695
sg12
g1695
sg14
VWP
p1696
sg16
Nsbag4
(g5
g6
Ntp1697
Rp1698
(dp1699
g10
Vshow
p1700
sg12
Vshows
p1701
sg14
VNNS
p1702
sg16
Nsbag4
(g5
g6
Ntp1703
Rp1704
(dp1705
g10
Vdo
p1706
sg12
Vdoes
p1707
sg14
VVBZ
p1708
sg16
Nsbag4
(g5
g6
Ntp1709
Rp1710
(dp1711
g10
Vjennifer
p1712
sg12
VJennifer
p1713
sg14
VNNP
p1714
sg16
Nsbag4
(g5
g6
Ntp1715
Rp1716
(dp1717
g10
Vaniston
p1718
sg12
VAniston
p1719
sg14
VNNP
p1720
sg16
Nsbag4
(g5
g6
Ntp1721
Rp1722
(dp1723
g10
Vappear
p1724
sg12
Vappears
p1725
sg14
VVBZ
p1726
sg16
Nsbag4
(g5
g6
Ntp1727
Rp1728
(dp1729
g10
g59
sg12
g59
sg14
g60
sg16
Nsbasg33
S'showswith'
p1730
sg35
I01
sa(dp1731
g2
(lp1732
g4
(g5
g6
Ntp1733
Rp1734
(dp1735
g10
Vshows
p1736
sg12
VShows
p1737
sg14
VNNS
p1738
sg16
Nsbag4
(g5
g6
Ntp1739
Rp1740
(dp1741
g10
Vwith
p1742
sg12
g1742
sg14
VIN
p1743
sg16
Nsbag4
(g5
g6
Ntp1744
Rp1745
(dp1746
g10
Vmatt
p1747
sg12
VMatt
p1748
sg14
VNNP
p1749
sg16
Nsbag4
(g5
g6
Ntp1750
Rp1751
(dp1752
g10
Vleblanc
p1753
sg12
VLeBlanc
p1754
sg14
VNNP
p1755
sg16
Nsbasg33
S'showswith'
p1756
sg35
I01
sa(dp1757
g2
(lp1758
g4
(g5
g6
Ntp1759
Rp1760
(dp1761
g10
Vwho
p1762
sg12
VWho
p1763
sg14
VWP
p1764
sg16
Nsbag4
(g5
g6
Ntp1765
Rp1766
(dp1767
g10
Vbe
p1768
sg12
Vis
p1769
sg14
VVBZ
p1770
sg16
Nsbag4
(g5
g6
Ntp1771
Rp1772
(dp1773
g10
Vthe
p1774
sg12
g1774
sg14
VDT
p1775
sg16
Nsbag4
(g5
g6
Ntp1776
Rp1777
(dp1778
g10
Vcreator
p1779
sg12
g1779
sg14
VNN
p1780
sg16
Nsbag4
(g5
g6
Ntp1781
Rp1782
(dp1783
g10
Vof
p1784
sg12
g1784
sg14
VIN
p1785
sg16
Nsbag4
(g5
g6
Ntp1786
Rp1787
(dp1788
g10
Vbreaking
p1789
sg12
VBreaking
p1790
sg14
VNNP
p1791
sg16
Nsbag4
(g5
g6
Ntp1792
Rp1793
(dp1794
g10
Vbad
p1795
sg12
VBad
p1796
sg14
VNNP
p1797
sg16
Nsbag4
(g5
g6
Ntp1798
Rp1799
(dp1800
g10
g59
sg12
g59
sg14
g60
sg16
Nsbasg33
S'creatorof'
p1801
sg35
I01
sa(dp1802
g2
(lp1803
g4
(g5
g6
Ntp1804
Rp1805
(dp1806
g10
Vwho
p1807
sg12
VWho
p1808
sg14
VWP
p1809
sg16
Nsbag4
(g5
g6
Ntp1810
Rp1811
(dp1812
g10
Vbe
p1813
sg12
Vare
p1814
sg14
VVBP
p1815
sg16
Nsbag4
(g5
g6
Ntp1816
Rp1817
(dp1818
g10
Vthe
p1819
sg12
g1819
sg14
VDT
p1820
sg16
Nsbag4
(g5
g6
Ntp1821
Rp1822
(dp1823
g10
Vcreator
p1824
sg12
Vcreators
p1825
sg14
VNNS
p1826
sg16
Nsbag4
(g5
g6
Ntp1827
Rp1828
(dp1829
g10
Vof
p1830
sg12
g1830
sg14
VIN
p1831
sg16
Nsbag4
(g5
g6
Ntp1832
Rp1833
(dp1834
g10
Vfriends
p1835
sg12
VFriends
p1836
sg14
VNNPS
p1837
sg16
Nsbag4
(g5
g6
Ntp1838
Rp1839
(dp1840
g10
g59
sg12
g59
sg14
g60
sg16
Nsbasg33
S'creatorof'
p1841
sg35
I01
sa(dp1842
g2
(lp1843
g4
(g5
g6
Ntp1844
Rp1845
(dp1846
g10
Vwho
p1847
sg12
g1847
sg14
VWP
p1848
sg16
Nsbag4
(g5
g6
Ntp1849
Rp1850
(dp1851
g10
Vwrite
p1852
sg12
Vwrote
p1853
sg14
VVBD
p1854
sg16
Nsbag4
(g5
g6
Ntp1855
Rp1856
(dp1857
g10
Vthe
p1858
sg12
VThe
p1859
sg14
VDT
p1860
sg16
Nsbag4
(g5
g6
Ntp1861
Rp1862
(dp1863
g10
Vlittle
p1864
sg12
VLittle
p1865
sg14
VNNP
p1866
sg16
Nsbag4
(g5
g6
Ntp1867
Rp1868
(dp1869
g10
Vprince
p1870
sg12
VPrince
p1871
sg14
VNNP
p1872
sg16
Nsbag4
(g5
g6
Ntp1873
Rp1874
(dp1875
g10
g59
sg12
g59
sg14
g60
sg16
Nsbasg33
S'whowrote'
p1876
sg35
I01
sa(dp1877
g2
(lp1878
g4
(g5
g6
Ntp1879
Rp1880
(dp1881
g10
Vwho
p1882
sg12
g1882
sg14
VWP
p1883
sg16
Nsbag4
(g5
g6
Ntp1884
Rp1885
(dp1886
g10
Vbe
p1887
sg12
Vis
p1888
sg14
VVBZ
p1889
sg16
Nsbag4
(g5
g6
Ntp1890
Rp1891
(dp1892
g10
Vthe
p1893
sg12
g1893
sg14
VDT
p1894
sg16
Nsbag4
(g5
g6
Ntp1895
Rp1896
(dp1897
g10
Vauthor
p1898
sg12
g1898
sg14
VNN
p1899
sg16
Nsbag4
(g5
g6
Ntp1900
Rp1901
(dp1902
g10
Vof
p1903
sg12
g1903
sg14
VIN
p1904
sg16
Nsbag4
(g5
g6
Ntp1905
Rp1906
(dp1907
g10
Va
p1908
sg12
VA
p1909
sg14
VDT
p1910
sg16
Nsbag4
(g5
g6
Ntp1911
Rp1912
(dp1913
g10
Vgame
p1914
sg12
VGame
p1915
sg14
VNNP
p1916
sg16
Nsbag4
(g5
g6
Ntp1917
Rp1918
(dp1919
g10
Vof
p1920
sg12
VOf
p1921
sg14
VNNP
p1922
sg16
Nsbag4
(g5
g6
Ntp1923
Rp1924
(dp1925
g10
Vthrones
p1926
sg12
VThrones
p1927
sg14
VNNP
p1928
sg16
Nsbag4
(g5
g6
Ntp1929
Rp1930
(dp1931
g10
g59
sg12
g59
sg14
g60
sg16
Nsbasg33
S'whowrote'
p1932
sg35
I01
sa(dp1933
g2
(lp1934
g4
(g5
g6
Ntp1935
Rp1936
(dp1937
g10
Vlist
p1938
sg12
g1938
sg14
VNN
p1939
sg16
Nsbag4
(g5
g6
Ntp1940
Rp1941
(dp1942
g10
Vbook
p1943
sg12
Vbooks
p1944
sg14
VNNS
p1945
sg16
Nsbag4
(g5
g6
Ntp1946
Rp1947
(dp1948
g10
Vby
p1949
sg12
g1949
sg14
VIN
p1950
sg16
Nsbag4
(g5
g6
Ntp1951
Rp1952
(dp1953
g10
Vgeorge
p1954
sg12
VGeorge
p1955
sg14
VNNP
p1956
sg16
Nsbag4
(g5
g6
Ntp1957
Rp1958
(dp1959
g10
Vorwell
p1960
sg12
VOrwell
p1961
sg14
VNNP
p1962
sg16
Nsbasg33
S'booksbyauthor'
p1963
sg35
I01
sa(dp1964
g2
(lp1965
g4
(g5
g6
Ntp1966
Rp1967
(dp1968
g10
Vwhich
p1969
sg12
g1969
sg14
VWDT
p1970
sg16
Nsbag4
(g5
g6
Ntp1971
Rp1972
(dp1973
g10
Vbook
p1974
sg12
Vbooks
p1975
sg14
VNNS
p1976
sg16
Nsbag4
(g5
g6
Ntp1977
Rp1978
(dp1979
g10
Vdo
p1980
sg12
Vdid
p1981
sg14
VVBD
p1982
sg16
Nsbag4
(g5
g6
Ntp1983
Rp1984
(dp1985
g10
Vsuzanne
p1986
sg12
VSuzanne
p1987
sg14
VNNP
p1988
sg16
Nsbag4
(g5
g6
Ntp1989
Rp1990
(dp1991
g10
Vcollins
p1992
sg12
VCollins
p1993
sg14
VNNP
p1994
sg16
Nsbag4
(g5
g6
Ntp1995
Rp1996
(dp1997
g10
Vwrite
p1998
sg12
Vwrote
p1999
sg14
VVBD
p2000
sg16
Nsbag4
(g5
g6
Ntp2001
Rp2002
(dp2003
g10
g59
sg12
g59
sg14
g60
sg16
Nsbasg33
S'booksbyauthor'
p2004
sg35
I01
sa(dp2005
g2
(lp2006
g4
(g5
g6
Ntp2007
Rp2008
(dp2009
g10
Vwho
p2010
sg12
g2010
sg14
VWP
p2011
sg16
Nsbag4
(g5
g6
Ntp2012
Rp2013
(dp2014
g10
Vbe
p2015
sg12
Vis
p2016
sg14
VVBZ
p2017
sg16
Nsbag4
(g5
g6
Ntp2018
Rp2019
(dp2020
g10
Vthe
p2021
sg12
g2021
sg14
VDT
p2022
sg16
Nsbag4
(g5
g6
Ntp2023
Rp2024
(dp2025
g10
Vwriter
p2026
sg12
g2026
sg14
VNN
p2027
sg16
Nsbag4
(g5
g6
Ntp2028
Rp2029
(dp2030
g10
Vof
p2031
sg12
g2031
sg14
VIN
p2032
sg16
Nsbag4
(g5
g6
Ntp2033
Rp2034
(dp2035
g10
Vthe
p2036
sg12
VThe
p2037
sg14
VDT
p2038
sg16
Nsbag4
(g5
g6
Ntp2039
Rp2040
(dp2041
g10
Vlord
p2042
sg12
VLord
p2043
sg14
VNNP
p2044
sg16
Nsbag4
(g5
g6
Ntp2045
Rp2046
(dp2047
g10
Vof
p2048
sg12
g2048
sg14
VIN
p2049
sg16
Nsbag4
(g5
g6
Ntp2050
Rp2051
(dp2052
g10
Vthe
p2053
sg12
g2053
sg14
VDT
p2054
sg16
Nsbag4
(g5
g6
Ntp2055
Rp2056
(dp2057
g10
Vrings
p2058
sg12
VRings
p2059
sg14
VNNP
p2060
sg16
Nsbag4
(g5
g6
Ntp2061
Rp2062
(dp2063
g10
g59
sg12
g59
sg14
g60
sg16
Nsbasg33
S'creatorof'
p2064
sg35
I00
sa(dp2065
g2
(lp2066
g4
(g5
g6
Ntp2067
Rp2068
(dp2069
g10
Vwho
p2070
sg12
g2070
sg14
VWP
p2071
sg16
Nsbag4
(g5
g6
Ntp2072
Rp2073
(dp2074
g10
Vcreate
p2075
sg12
g2075
sg14
VVBP
p2076
sg16
Nsbag4
(g5
g6
Ntp2077
Rp2078
(dp2079
g10
Vthe
p2080
sg12
VThe
p2081
sg14
VDT
p2082
sg16
Nsbag4
(g5
g6
Ntp2083
Rp2084
(dp2085
g10
Vneverending
p2086
sg12
VNeverending
p2087
sg14
VNNP
p2088
sg16
Nsbag4
(g5
g6
Ntp2089
Rp2090
(dp2091
g10
Vstory
p2092
sg12
VStory
p2093
sg14
VNNP
p2094
sg16
Nsbag4
(g5
g6
Ntp2095
Rp2096
(dp2097
g10
g59
sg12
g59
sg14
g60
sg16
Nsbasg33
S'creatorof'
p2098
sg35
I00
sa(dp2099
g2
(lp2100
g4
(g5
g6
Ntp2101
Rp2102
(dp2103
g10
Vlist
p2104
sg12
g2104
sg14
VNN
p2105
sg16
Nsbag4
(g5
g6
Ntp2106
Rp2107
(dp2108
g10
Vbook
p2109
sg12
Vbooks
p2110
sg14
VNNS
p2111
sg16
Nsbag4
(g5
g6
Ntp2112
Rp2113
(dp2114
g10
Vwrite
p2115
sg12
Vwritten
p2116
sg14
VVBN
p2117
sg16
Nsbag4
(g5
g6
Ntp2118
Rp2119
(dp2120
g10
Vby
p2121
sg12
g2121
sg14
VIN
p2122
sg16
Nsbag4
(g5
g6
Ntp2123
Rp2124
(dp2125
g10
Vj
p2126
sg12
VJ
p2127
sg14
VNNP
p2128
sg16
Nsbag4
(g5
g6
Ntp2129
Rp2130
(dp2131
g10
g60
sg12
g60
sg14
g60
sg16
Nsbag4
(g5
g6
Ntp2132
Rp2133
(dp2134
g10
Vk
p2135
sg12
VK
p2136
sg14
VNNP
p2137
sg16
Nsbag4
(g5
g6
Ntp2138
Rp2139
(dp2140
g10
g60
sg12
g60
sg14
g60
sg16
Nsbag4
(g5
g6
Ntp2141
Rp2142
(dp2143
g10
Vrowling
p2144
sg12
VRowling
p2145
sg14
VNNP
p2146
sg16
Nsbasg33
S'booksbyauthor'
p2147
sg35
I00
sa(dp2148
g2
(lp2149
g4
(g5
g6
Ntp2150
Rp2151
(dp2152
g10
Vlist
p2153
sg12
g2153
sg14
VNN
p2154
sg16
Nsbag4
(g5
g6
Ntp2155
Rp2156
(dp2157
g10
Vof
p2158
sg12
g2158
sg14
VIN
p2159
sg16
Nsbag4
(g5
g6
Ntp2160
Rp2161
(dp2162
g10
Vworks
p2163
sg12
g2163
sg14
VNNS
p2164
sg16
Nsbag4
(g5
g6
Ntp2165
Rp2166
(dp2167
g10
Vwrite
p2168
sg12
Vwritten
p2169
sg14
VVBN
p2170
sg16
Nsbag4
(g5
g6
Ntp2171
Rp2172
(dp2173
g10
Vby
p2174
sg12
g2174
sg14
VIN
p2175
sg16
Nsbag4
(g5
g6
Ntp2176
Rp2177
(dp2178
g10
Vgeorge
p2179
sg12
VGeorge
p2180
sg14
VNNP
p2181
sg16
Nsbag4
(g5
g6
Ntp2182
Rp2183
(dp2184
g10
Vr
p2185
sg12
VR
p2186
sg14
VNNP
p2187
sg16
Nsbag4
(g5
g6
Ntp2188
Rp2189
(dp2190
g10
g60
sg12
g60
sg14
g60
sg16
Nsbag4
(g5
g6
Ntp2191
Rp2192
(dp2193
g10
Vr
p2194
sg12
g2186
sg14
VNNP
p2195
sg16
Nsbag4
(g5
g6
Ntp2196
Rp2197
(dp2198
g10
g60
sg12
g60
sg14
g60
sg16
Nsbag4
(g5
g6
Ntp2199
Rp2200
(dp2201
g10
Vmartin
p2202
sg12
VMartin
p2203
sg14
VNNP
p2204
sg16
Nsbasg33
S'booksbyauthor'
p2205
sg35
I00
sa(dp2206
g2
(lp2207
g4
(g5
g6
Ntp2208
Rp2209
(dp2210
g10
Vlist
p2211
sg12
g2211
sg14
VNN
p2212
sg16
Nsbag4
(g5
g6
Ntp2213
Rp2214
(dp2215
g10
Vof
p2216
sg12
g2216
sg14
VIN
p2217
sg16
Nsbag4
(g5
g6
Ntp2218
Rp2219
(dp2220
g10
Vbook
p2221
sg12
Vbooks
p2222
sg14
VNNS
p2223
sg16
Nsbag4
(g5
g6
Ntp2224
Rp2225
(dp2226
g10
Vcreate
p2227
sg12
Vcreated
p2228
sg14
VVBN
p2229
sg16
Nsbag4
(g5
g6
Ntp2230
Rp2231
(dp2232
g10
Vby
p2233
sg12
g2233
sg14
VIN
p2234
sg16
Nsbag4
(g5
g6
Ntp2235
Rp2236
(dp2237
g10
Vagatha
p2238
sg12
VAgatha
p2239
sg14
VNNP
p2240
sg16
Nsbag4
(g5
g6
Ntp2241
Rp2242
(dp2243
g10
Vchristie
p2244
sg12
VChristie
p2245
sg14
VNNP
p2246
sg16
Nsbasg33
S'booksbyauthor'
p2247
sg35
I00
sa(dp2248
g2
(lp2249
g4
(g5
g6
Ntp2250
Rp2251
(dp2252
g10
Vwhat
p2253
sg12
VWhat
p2254
sg14
VWP
p2255
sg16
Nsbag4
(g5
g6
Ntp2256
Rp2257
(dp2258
g10
Vbe
p2259
sg12
Vare
p2260
sg14
VVBP
p2261
sg16
Nsbag4
(g5
g6
Ntp2262
Rp2263
(dp2264
g10
Vtitle
p2265
sg12
Vtitles
p2266
sg14
VNNS
p2267
sg16
Nsbag4
(g5
g6
Ntp2268
Rp2269
(dp2270
g10
Vof
p2271
sg12
g2271
sg14
VIN
p2272
sg16
Nsbag4
(g5
g6
Ntp2273
Rp2274
(dp2275
g10
Vbook
p2276
sg12
Vbooks
p2277
sg14
VNNS
p2278
sg16
Nsbag4
(g5
g6
Ntp2279
Rp2280
(dp2281
g10
Vwrite
p2282
sg12
Vwritten
p2283
sg14
VVBN
p2284
sg16
Nsbag4
(g5
g6
Ntp2285
Rp2286
(dp2287
g10
Vby
p2288
sg12
g2288
sg14
VIN
p2289
sg16
Nsbag4
(g5
g6
Ntp2290
Rp2291
(dp2292
g10
Vdan
p2293
sg12
VDan
p2294
sg14
VNNP
p2295
sg16
Nsbag4
(g5
g6
Ntp2296
Rp2297
(dp2298
g10
Vbrown
p2299
sg12
VBrown
p2300
sg14
VNNP
p2301
sg16
Nsbag4
(g5
g6
Ntp2302
Rp2303
(dp2304
g10
g59
sg12
g59
sg14
g60
sg16
Nsbasg33
S''
p2305
sg35
I00
sa(dp2306
g2
(lp2307
g4
(g5
g6
Ntp2308
Rp2309
(dp2310
g10
Vwhat
p2311
sg12
VWhat
p2312
sg14
VWP
p2313
sg16
Nsbag4
(g5
g6
Ntp2314
Rp2315
(dp2316
g10
Vmovie
p2317
sg12
Vmovies
p2318
sg14
VNNS
p2319
sg16
Nsbag4
(g5
g6
Ntp2320
Rp2321
(dp2322
g10
Vdo
p2323
sg12
Vdid
p2324
sg14
VVBD
p2325
sg16
Nsbag4
(g5
g6
Ntp2326
Rp2327
(dp2328
g10
Vjames
p2329
sg12
VJames
p2330
sg14
VNNP
p2331
sg16
Nsbag4
(g5
g6
Ntp2332
Rp2333
(dp2334
g10
Vdean
p2335
sg12
VDean
p2336
sg14
VNNP
p2337
sg16
Nsbag4
(g5
g6
Ntp2338
Rp2339
(dp2340
g10
Vappear
p2341
sg12
g2341
sg14
VNN
p2342
sg16
Nsbag4
(g5
g6
Ntp2343
Rp2344
(dp2345
g10
Vin
p2346
sg12
g2346
sg14
VIN
p2347
sg16
Nsbag4
(g5
g6
Ntp2348
Rp2349
(dp2350
g10
g59
sg12
g59
sg14
g60
sg16
Nsbasg33
S'actedon'
p2351
sg35
I00
sa(dp2352
S'question'
p2353
(lp2354
g4
(g5
g6
Ntp2355
Rp2356
(dp2357
g10
Vwhat
p2358
sg12
VWhat
p2359
sg14
VWP
p2360
sg16
Nsbag4
(g5
g6
Ntp2361
Rp2362
(dp2363
g10
Vbe
p2364
sg12
Vis
p2365
sg14
VVBZ
p2366
sg16
Nsbag4
(g5
g6
Ntp2367
Rp2368
(dp2369
g10
V"
p2370
sg12
g2370
sg14
V:
p2371
sg16
Nsbag4
(g5
g6
Ntp2372
Rp2373
(dp2374
g10
Vwwe
p2375
sg12
VWWE
p2376
sg14
VNNP
p2377
sg16
Nsbag4
(g5
g6
Ntp2378
Rp2379
(dp2380
g10
g2370
sg12
g2370
sg14
g2371
sg16
Nsbag4
(g5
g6
Ntp2381
Rp2382
(dp2383
g10
Vshort
p2384
sg12
g2384
sg14
VJJ
p2385
sg16
Nsbag4
(g5
g6
Ntp2386
Rp2387
(dp2388
g10
Vfor
p2389
sg12
g2389
sg14
VIN
p2390
sg16
Nsbag4
(g5
g6
Ntp2391
Rp2392
(dp2393
g10
V?
p2394
sg12
g2394
sg14
V.
p2395
sg16
NsbasS'target'
p2396
S'other'
p2397
sa(dp2398
g2353
(lp2399
g4
(g5
g6
Ntp2400
Rp2401
(dp2402
g10
Vwho
p2403
sg12
VWho
p2404
sg14
VWP
p2405
sg16
Nsbag4
(g5
g6
Ntp2406
Rp2407
(dp2408
g10
Vbe
p2409
sg12
Vwas
p2410
sg14
VVBD
p2411
sg16
Nsbag4
(g5
g6
Ntp2412
Rp2413
(dp2414
g10
Vella
p2415
sg12
VElla
p2416
sg14
VNNP
p2417
sg16
Nsbag4
(g5
g6
Ntp2418
Rp2419
(dp2420
g10
Vfitzgerald
p2421
sg12
VFitzgerald
p2422
sg14
VNNP
p2423
sg16
Nsbag4
(g5
g6
Ntp2424
Rp2425
(dp2426
g10
V'
p2427
sg12
g2427
sg14
VPOS
p2428
sg16
Nsbag4
(g5
g6
Ntp2429
Rp2430
(dp2431
g10
Vs
p2432
sg12
g2432
sg14
VNNS
p2433
sg16
Nsbag4
(g5
g6
Ntp2434
Rp2435
(dp2436
g10
Vhusband
p2437
sg12
g2437
sg14
VVBP
p2438
sg16
Nsbag4
(g5
g6
Ntp2439
Rp2440
(dp2441
g10
g2394
sg12
g2394
sg14
g2395
sg16
Nsbasg2396
S'other'
p2442
sa(dp2443
g2353
(lp2444
g4
(g5
g6
Ntp2445
Rp2446
(dp2447
g10
Vwhich
p2448
sg12
VWhich
p2449
sg14
VWDT
p2450
sg16
Nsbag4
(g5
g6
Ntp2451
Rp2452
(dp2453
g10
Vus
p2454
sg12
VUS
p2455
sg14
VPRP
p2456
sg16
Nsbag4
(g5
g6
Ntp2457
Rp2458
(dp2459
g10
Vgovernment
p2460
sg12
g2460
sg14
VVBD
p2461
sg16
Nsbag4
(g5
g6
Ntp2462
Rp2463
(dp2464
g10
Vofficial
p2465
sg12
Vofficials
p2466
sg14
VNNS
p2467
sg16
Nsbag4
(g5
g6
Ntp2468
Rp2469
(dp2470
g10
Vaccept
p2471
sg12
Vaccepted
p2472
sg14
VVBN
p2473
sg16
Nsbag4
(g5
g6
Ntp2474
Rp2475
(dp2476
g10
Vhis
p2477
sg12
g2477
sg14
VPRP$
p2478
sg16
Nsbag4
(g5
g6
Ntp2479
Rp2480
(dp2481
g10
Vclaim
p2482
sg12
Vclaims
p2483
sg14
VNNS
p2484
sg16
Nsbag4
(g5
g6
Ntp2485
Rp2486
(dp2487
g10
Vregard
p2488
sg12
Vregarding
p2489
sg14
VVBG
p2490
sg16
Nsbag4
(g5
g6
Ntp2491
Rp2492
(dp2493
g10
Viraqi
p2494
sg12
VIraqi
p2495
sg14
VNNP
p2496
sg16
Nsbag4
(g5
g6
Ntp2497
Rp2498
(dp2499
g10
Vweapon
p2500
sg12
Vweapons
p2501
sg14
VNNS
p2502
sg16
Nsbag4
(g5
g6
Ntp2503
Rp2504
(dp2505
g10
Vlabs
p2506
sg12
g2506
sg14
VVBZ
p2507
sg16
Nsbag4
(g5
g6
Ntp2508
Rp2509
(dp2510
g10
g2394
sg12
g2394
sg14
g2395
sg16
Nsbasg2396
S'other'
p2511
sa(dp2512
g2353
(lp2513
g4
(g5
g6
Ntp2514
Rp2515
(dp2516
g10
Vwhat
p2517
sg12
VWhat
p2518
sg14
VWP
p2519
sg16
Nsbag4
(g5
g6
Ntp2520
Rp2521
(dp2522
g10
Vbe
p2523
sg12
Vis
p2524
sg14
VVBZ
p2525
sg16
Nsbag4
(g5
g6
Ntp2526
Rp2527
(dp2528
g10
Vgrenada
p2529
sg12
VGrenada
p2530
sg14
VNNP
p2531
sg16
Nsbag4
(g5
g6
Ntp2532
Rp2533
(dp2534
g10
Vmain
p2535
sg12
g2535
sg14
VNN
p2536
sg16
Nsbag4
(g5
g6
Ntp2537
Rp2538
(dp2539
g10
Vcommodity
p2540
sg12
g2540
sg14
VNN
p2541
sg16
Nsbag4
(g5
g6
Ntp2542
Rp2543
(dp2544
g10
Vexport
p2545
sg12
g2545
sg14
VNN
p2546
sg16
Nsbasg2396
S'other'
p2547
sa(dp2548
g2353
(lp2549
g4
(g5
g6
Ntp2550
Rp2551
(dp2552
g10
Vwhat
p2553
sg12
VWhat
p2554
sg14
VWP
p2555
sg16
Nsbag4
(g5
g6
Ntp2556
Rp2557
(dp2558
g10
Vinternational
p2559
sg12
g2559
sg14
VJJ
p2560
sg16
Nsbag4
(g5
g6
Ntp2561
Rp2562
(dp2563
g10
Vleaders
p2564
sg12
g2564
sg14
VNNS
p2565
sg16
Nsbag4
(g5
g6
Ntp2566
Rp2567
(dp2568
g10
Vsend
p2569
sg12
Vsent
p2570
sg14
VVBN
p2571
sg16
Nsbag4
(g5
g6
Ntp2572
Rp2573
(dp2574
g10
Vor
p2575
sg12
g2575
sg14
VCC
p2576
sg16
Nsbag4
(g5
g6
Ntp2577
Rp2578
(dp2579
g10
Vgive
p2580
sg12
Vgave
p2581
sg14
VVB
p2582
sg16
Nsbag4
(g5
g6
Ntp2583
Rp2584
(dp2585
g10
Vcongratulations
p2586
sg12
g2586
sg14
VNNS
p2587
sg16
Nsbag4
(g5
g6
Ntp2588
Rp2589
(dp2590
g10
g2394
sg12
g2394
sg14
g2395
sg16
Nsbasg2396
S'other'
p2591
sa(dp2592
g2353
(lp2593
g4
(g5
g6
Ntp2594
Rp2595
(dp2596
g10
Vwhat
p2597
sg12
VWhat
p2598
sg14
VWP
p2599
sg16
Nsbag4
(g5
g6
Ntp2600
Rp2601
(dp2602
g10
Vname
p2603
sg12
Vnamed
p2604
sg14
VVBN
p2605
sg16
Nsbag4
(g5
g6
Ntp2606
Rp2607
(dp2608
g10
Vlandmark
p2609
sg12
Vlandmarks
p2610
sg14
VNNS
p2611
sg16
Nsbag4
(g5
g6
Ntp2612
Rp2613
(dp2614
g10
Vbe
p2615
sg12
Vwere
p2616
sg14
VVBD
p2617
sg16
Nsbag4
(g5
g6
Ntp2618
Rp2619
(dp2620
g10
Vvisit
p2621
sg12
Vvisited
p2622
sg14
VVBN
p2623
sg16
Nsbag4
(g5
g6
Ntp2624
Rp2625
(dp2626
g10
Vby
p2627
sg12
g2627
sg14
VIN
p2628
sg16
Nsbag4
(g5
g6
Ntp2629
Rp2630
(dp2631
g10
Vone
p2632
sg12
g2632
sg14
VCD
p2633
sg16
Nsbag4
(g5
g6
Ntp2634
Rp2635
(dp2636
g10
Vof
p2637
sg12
g2637
sg14
VIN
p2638
sg16
Nsbag4
(g5
g6
Ntp2639
Rp2640
(dp2641
g10
Vthese
p2642
sg12
g2642
sg14
VDT
p2643
sg16
Nsbag4
(g5
g6
Ntp2644
Rp2645
(dp2646
g10
Vrover
p2647
sg12
Vrovers
p2648
sg14
VNNS
p2649
sg16
Nsbag4
(g5
g6
Ntp2650
Rp2651
(dp2652
g10
g2394
sg12
g2394
sg14
g2395
sg16
Nsbasg2396
S'other'
p2653
sa(dp2654
g2353
(lp2655
g4
(g5
g6
Ntp2656
Rp2657
(dp2658
g10
Vin
p2659
sg12
VIn
p2660
sg14
VIN
p2661
sg16
Nsbag4
(g5
g6
Ntp2662
Rp2663
(dp2664
g10
Vwhat
p2665
sg12
g2665
sg14
VWP
p2666
sg16
Nsbag4
(g5
g6
Ntp2667
Rp2668
(dp2669
g10
Vstate
p2670
sg12
g2670
sg14
VNN
p2671
sg16
Nsbag4
(g5
g6
Ntp2672
Rp2673
(dp2674
g10
Vbe
p2675
sg12
Vwas
p2676
sg14
VVBD
p2677
sg16
Nsbag4
(g5
g6
Ntp2678
Rp2679
(dp2680
g10
Vthe
p2681
sg12
g2681
sg14
VDT
p2682
sg16
Nsbag4
(g5
g6
Ntp2683
Rp2684
(dp2685
g10
Vsago
p2686
sg12
VSago
p2687
sg14
VNNP
p2688
sg16
Nsbag4
(g5
g6
Ntp2689
Rp2690
(dp2691
g10
Vmine
p2692
sg12
g2692
sg14
VNN
p2693
sg16
Nsbag4
(g5
g6
Ntp2694
Rp2695
(dp2696
g10
g2394
sg12
g2394
sg14
g2395
sg16
Nsbasg2396
S'other'
p2697
sa(dp2698
g2353
(lp2699
g4
(g5
g6
Ntp2700
Rp2701
(dp2702
g10
Vwho
p2703
sg12
VWho
p2704
sg14
VWP
p2705
sg16
Nsbag4
(g5
g6
Ntp2706
Rp2707
(dp2708
g10
Vbe
p2709
sg12
Vwas
p2710
sg14
VVBD
p2711
sg16
Nsbag4
(g5
g6
Ntp2712
Rp2713
(dp2714
g10
Vchoose
p2715
sg12
Vchosen
p2716
sg14
VVBN
p2717
sg16
Nsbag4
(g5
g6
Ntp2718
Rp2719
(dp2720
g10
Vto
p2721
sg12
g2721
sg14
VTO
p2722
sg16
Nsbag4
(g5
g6
Ntp2723
Rp2724
(dp2725
g10
Vbe
p2726
sg12
g2726
sg14
VVB
p2727
sg16
Nsbag4
(g5
g6
Ntp2728
Rp2729
(dp2730
g10
Vthe
p2731
sg12
g2731
sg14
VDT
p2732
sg16
Nsbag4
(g5
g6
Ntp2733
Rp2734
(dp2735
g10
Vfirst
p2736
sg12
g2736
sg14
VJJ
p2737
sg16
Nsbag4
(g5
g6
Ntp2738
Rp2739
(dp2740
g10
Vblack
p2741
sg12
g2741
sg14
VNN
p2742
sg16
Nsbag4
(g5
g6
Ntp2743
Rp2744
(dp2745
g10
Vchairman
p2746
sg12
g2746
sg14
VNN
p2747
sg16
Nsbag4
(g5
g6
Ntp2748
Rp2749
(dp2750
g10
Vof
p2751
sg12
g2751
sg14
VIN
p2752
sg16
Nsbag4
(g5
g6
Ntp2753
Rp2754
(dp2755
g10
Vthe
p2756
sg12
g2756
sg14
VDT
p2757
sg16
Nsbag4
(g5
g6
Ntp2758
Rp2759
(dp2760
g10
Vmilitary
p2761
sg12
g2761
sg14
VJJ
p2762
sg16
Nsbag4
(g5
g6
Ntp2763
Rp2764
(dp2765
g10
Vjoint
p2766
sg12
VJoint
p2767
sg14
VNNP
p2768
sg16
Nsbag4
(g5
g6
Ntp2769
Rp2770
(dp2771
g10
Vchiefs
p2772
sg12
VChiefs
p2773
sg14
VNNP
p2774
sg16
Nsbag4
(g5
g6
Ntp2775
Rp2776
(dp2777
g10
Vof
p2778
sg12
g2778
sg14
VIN
p2779
sg16
Nsbag4
(g5
g6
Ntp2780
Rp2781
(dp2782
g10
Vstaff
p2783
sg12
VStaff
p2784
sg14
VNNP
p2785
sg16
Nsbasg2396
S'other'
p2786
sa(dp2787
g2353
(lp2788
g4
(g5
g6
Ntp2789
Rp2790
(dp2791
g10
Vwhat
p2792
sg12
VWhat
p2793
sg14
VWP
p2794
sg16
Nsbag4
(g5
g6
Ntp2795
Rp2796
(dp2797
g10
Vbe
p2798
sg12
Vwas
p2799
sg14
VVBD
p2800
sg16
Nsbag4
(g5
g6
Ntp2801
Rp2802
(dp2803
g10
Vthe
p2804
sg12
g2804
sg14
VDT
p2805
sg16
Nsbag4
(g5
g6
Ntp2806
Rp2807
(dp2808
g10
Vcause
p2809
sg12
g2809
sg14
VNN
p2810
sg16
Nsbag4
(g5
g6
Ntp2811
Rp2812
(dp2813
g10
Vof
p2814
sg12
g2814
sg14
VIN
p2815
sg16
Nsbag4
(g5
g6
Ntp2816
Rp2817
(dp2818
g10
Vthe
p2819
sg12
g2819
sg14
VDT
p2820
sg16
Nsbag4
(g5
g6
Ntp2821
Rp2822
(dp2823
g10
Vrecipient
p2824
sg12
g2824
sg14
VJJ
p2825
sg16
Nsbag4
(g5
g6
Ntp2826
Rp2827
(dp2828
g10
g2427
sg12
g2427
sg14
VPOS
p2829
sg16
Nsbag4
(g5
g6
Ntp2830
Rp2831
(dp2832
g10
g2432
sg12
g2432
sg14
VNNS
p2833
sg16
Nsbag4
(g5
g6
Ntp2834
Rp2835
(dp2836
g10
Vfacial
p2837
sg12
g2837
sg14
VJJ
p2838
sg16
Nsbag4
(g5
g6
Ntp2839
Rp2840
(dp2841
g10
Vproblem
p2842
sg12
g2842
sg14
VNN
p2843
sg16
Nsbag4
(g5
g6
Ntp2844
Rp2845
(dp2846
g10
g2394
sg12
g2394
sg14
g2395
sg16
Nsbasg2396
S'other'
p2847
sa(dp2848
g2353
(lp2849
g4
(g5
g6
Ntp2850
Rp2851
(dp2852
g10
Vhow
p2853
sg12
VHow
p2854
sg14
VWRB
p2855
sg16
Nsbag4
(g5
g6
Ntp2856
Rp2857
(dp2858
g10
Vmany
p2859
sg12
g2859
sg14
VJJ
p2860
sg16
Nsbag4
(g5
g6
Ntp2861
Rp2862
(dp2863
g10
Vmission
p2864
sg12
Vmissions
p2865
sg14
VNNS
p2866
sg16
Nsbag4
(g5
g6
Ntp2867
Rp2868
(dp2869
g10
Vdo
p2870
sg12
Vdid
p2871
sg14
VVBD
p2872
sg16
Nsbag4
(g5
g6
Ntp2873
Rp2874
(dp2875
g10
Vthe
p2876
sg12
g2876
sg14
VDT
p2877
sg16
Nsbag4
(g5
g6
Ntp2878
Rp2879
(dp2880
g10
Vmemphis
p2881
sg12
VMemphis
p2882
sg14
VNNP
p2883
sg16
Nsbag4
(g5
g6
Ntp2884
Rp2885
(dp2886
g10
Vbelle
p2887
sg12
VBelle
p2888
sg14
VNNP
p2889
sg16
Nsbag4
(g5
g6
Ntp2890
Rp2891
(dp2892
g10
Vfly
p2893
sg12
g2893
sg14
VRB
p2894
sg16
Nsbag4
(g5
g6
Ntp2895
Rp2896
(dp2897
g10
g2394
sg12
g2394
sg14
g2395
sg16
Nsbasg2396
S'other'
p2898
sa(dp2899
g2353
(lp2900
g4
(g5
g6
Ntp2901
Rp2902
(dp2903
g10
Vwhat
p2904
sg12
VWhat
p2905
sg14
VWP
p2906
sg16
Nsbag4
(g5
g6
Ntp2907
Rp2908
(dp2909
g10
Vresearcher
p2910
sg12
Vresearchers
p2911
sg14
VNNS
p2912
sg16
Nsbag4
(g5
g6
Ntp2913
Rp2914
(dp2915
g10
Vhave
p2916
sg12
g2916
sg14
VVBP
p2917
sg16
Nsbag4
(g5
g6
Ntp2918
Rp2919
(dp2920
g10
Vwork
p2921
sg12
Vworked
p2922
sg14
VVBN
p2923
sg16
Nsbag4
(g5
g6
Ntp2924
Rp2925
(dp2926
g10
Vwith
p2927
sg12
g2927
sg14
VIN
p2928
sg16
Nsbag4
(g5
g6
Ntp2929
Rp2930
(dp2931
g10
Vprion
p2932
sg12
Vprions
p2933
sg14
VNNS
p2934
sg16
Nsbag4
(g5
g6
Ntp2935
Rp2936
(dp2937
g10
g2394
sg12
g2394
sg14
g2395
sg16
Nsbasg2396
S'other'
p2938
sa(dp2939
g2353
(lp2940
g4
(g5
g6
Ntp2941
Rp2942
(dp2943
g10
Vwhat
p2944
sg12
VWhat
p2945
sg14
VWP
p2946
sg16
Nsbag4
(g5
g6
Ntp2947
Rp2948
(dp2949
g10
Vlead
p2950
sg12
Vleading
p2951
sg14
VVBG
p2952
sg16
Nsbag4
(g5
g6
Ntp2953
Rp2954
(dp2955
g10
Vmen
p2956
sg12
g2956
sg14
VNNS
p2957
sg16
Nsbag4
(g5
g6
Ntp2958
Rp2959
(dp2960
g10
Vdo
p2961
sg12
Vdid
p2962
sg14
VVBD
p2963
sg16
Nsbag4
(g5
g6
Ntp2964
Rp2965
(dp2966
g10
Vjean
p2967
sg12
VJean
p2968
sg14
VNNP
p2969
sg16
Nsbag4
(g5
g6
Ntp2970
Rp2971
(dp2972
g10
Vharlow
p2973
sg12
VHarlow
p2974
sg14
VNNP
p2975
sg16
Nsbag4
(g5
g6
Ntp2976
Rp2977
(dp2978
g10
Vstar
p2979
sg12
g2979
sg14
VNN
p2980
sg16
Nsbag4
(g5
g6
Ntp2981
Rp2982
(dp2983
g10
Vopposite
p2984
sg12
g2984
sg14
VNN
p2985
sg16
Nsbag4
(g5
g6
Ntp2986
Rp2987
(dp2988
g10
g2394
sg12
g2394
sg14
g2395
sg16
Nsbasg2396
S'other'
p2989
sa(dp2990
g2353
(lp2991
g4
(g5
g6
Ntp2992
Rp2993
(dp2994
g10
Vwhat
p2995
sg12
VWhat
p2996
sg14
VWP
p2997
sg16
Nsbag4
(g5
g6
Ntp2998
Rp2999
(dp3000
g10
Vstate
p3001
sg12
g3001
sg14
VNN
p3002
sg16
Nsbag4
(g5
g6
Ntp3003
Rp3004
(dp3005
g10
V-
p3006
sg12
g3006
sg14
g2371
sg16
Nsbag4
(g5
g6
Ntp3007
Rp3008
(dp3009
g10
Vof
p3010
sg12
g3010
sg14
VIN
p3011
sg16
Nsbag4
(g5
g6
Ntp3012
Rp3013
(dp3014
g10
g3006
sg12
g3006
sg14
g2371
sg16
Nsbag4
(g5
g6
Ntp3015
Rp3016
(dp3017
g10
Vthe
p3018
sg12
g3018
sg14
VDT
p3019
sg16
Nsbag4
(g5
g6
Ntp3020
Rp3021
(dp3022
g10
g3006
sg12
g3006
sg14
g2371
sg16
Nsbag4
(g5
g6
Ntp3023
Rp3024
(dp3025
g10
Vart
p3026
sg12
g3026
sg14
VNN
p3027
sg16
Nsbag4
(g5
g6
Ntp3028
Rp3029
(dp3030
g10
Vtechnique
p3031
sg12
g3031
sg14
VNN
p3032
sg16
Nsbag4
(g5
g6
Ntp3033
Rp3034
(dp3035
g10
Vbe
p3036
sg12
Vis
p3037
sg14
VVBZ
p3038
sg16
Nsbag4
(g5
g6
Ntp3039
Rp3040
(dp3041
g10
Vbe
p3042
sg12
Vbeing
p3043
sg14
VVBG
p3044
sg16
Nsbag4
(g5
g6
Ntp3045
Rp3046
(dp3047
g10
Vuse
p3048
sg12
Vused
p3049
sg14
VVBN
p3050
sg16
Nsbag4
(g5
g6
Ntp3051
Rp3052
(dp3053
g10
Vfor
p3054
sg12
g3054
sg14
VIN
p3055
sg16
Nsbag4
(g5
g6
Ntp3056
Rp3057
(dp3058
g10
Vthe
p3059
sg12
g3059
sg14
VDT
p3060
sg16
Nsbag4
(g5
g6
Ntp3061
Rp3062
(dp3063
g10
Vnew
p3064
sg12
Vnewest
p3065
sg14
VJJS
p3066
sg16
Nsbag4
(g5
g6
Ntp3067
Rp3068
(dp3069
g10
Vtmnt
p3070
sg12
VTMNT
p3071
sg14
VNNP
p3072
sg16
Nsbag4
(g5
g6
Ntp3073
Rp3074
(dp3075
g10
Vmovie
p3076
sg12
g3076
sg14
VNN
p3077
sg16
Nsbag4
(g5
g6
Ntp3078
Rp3079
(dp3080
g10
g2394
sg12
g2394
sg14
g2395
sg16
Nsbasg2396
S'other'
p3081
sa(dp3082
g2353
(lp3083
g4
(g5
g6
Ntp3084
Rp3085
(dp3086
g10
Vwhere
p3087
sg12
VWhere
p3088
sg14
VWRB
p3089
sg16
Nsbag4
(g5
g6
Ntp3090
Rp3091
(dp3092
g10
Vbe
p3093
sg12
Vis
p3094
sg14
VVBZ
p3095
sg16
Nsbag4
(g5
g6
Ntp3096
Rp3097
(dp3098
g10
Vthe
p3099
sg12
g3099
sg14
VDT
p3100
sg16
Nsbag4
(g5
g6
Ntp3101
Rp3102
(dp3103
g10
Vuss
p3104
sg12
VUSS
p3105
sg14
VNNP
p3106
sg16
Nsbag4
(g5
g6
Ntp3107
Rp3108
(dp3109
g10
Vabraham
p3110
sg12
VAbraham
p3111
sg14
VNNP
p3112
sg16
Nsbag4
(g5
g6
Ntp3113
Rp3114
(dp3115
g10
Vlincoln
p3116
sg12
VLincoln
p3117
sg14
VNNP
p3118
sg16
Nsbag4
(g5
g6
Ntp3119
Rp3120
(dp3121
g10
Vhome
p3122
sg12
g3122
sg14
VNN
p3123
sg16
Nsbag4
(g5
g6
Ntp3124
Rp3125
(dp3126
g10
Vport
p3127
sg12
Vported
p3128
sg14
VVBD
p3129
sg16
Nsbag4
(g5
g6
Ntp3130
Rp3131
(dp3132
g10
g2394
sg12
g2394
sg14
g2395
sg16
Nsbasg2396
S'other'
p3133
sa(dp3134
g2353
(lp3135
g4
(g5
g6
Ntp3136
Rp3137
(dp3138
g10
Vwho
p3139
sg12
VWho
p3140
sg14
VWP
p3141
sg16
Nsbag4
(g5
g6
Ntp3142
Rp3143
(dp3144
g10
Vbe
p3145
sg12
Vis
p3146
sg14
VVBZ
p3147
sg16
Nsbag4
(g5
g6
Ntp3148
Rp3149
(dp3150
g10
Vthe
p3151
sg12
g3151
sg14
VDT
p3152
sg16
Nsbag4
(g5
g6
Ntp3153
Rp3154
(dp3155
g10
Vchairman
p3156
sg12
g3156
sg14
VNN
p3157
sg16
Nsbag4
(g5
g6
Ntp3158
Rp3159
(dp3160
g10
Vof
p3161
sg12
g3161
sg14
VIN
p3162
sg16
Nsbag4
(g5
g6
Ntp3163
Rp3164
(dp3165
g10
Vbat
p3166
sg12
VBAT
p3167
sg14
VNNP
p3168
sg16
Nsbag4
(g5
g6
Ntp3169
Rp3170
(dp3171
g10
g2394
sg12
g2394
sg14
g2395
sg16
Nsbasg2396
S'other'
p3172
sa(dp3173
g2353
(lp3174
g4
(g5
g6
Ntp3175
Rp3176
(dp3177
g10
Vwho
p3178
sg12
VWho
p3179
sg14
VWP
p3180
sg16
Nsbag4
(g5
g6
Ntp3181
Rp3182
(dp3183
g10
Vbe
p3184
sg12
Vis
p3185
sg14
VVBZ
p3186
sg16
Nsbag4
(g5
g6
Ntp3187
Rp3188
(dp3189
g10
Vthe
p3190
sg12
g3190
sg14
VDT
p3191
sg16
Nsbag4
(g5
g6
Ntp3192
Rp3193
(dp3194
g10
Vairport
p3195
sg12
g3195
sg14
VNN
p3196
sg16
Nsbag4
(g5
g6
Ntp3197
Rp3198
(dp3199
g10
Vname
p3200
sg12
Vnamed
p3201
sg14
VVBD
p3202
sg16
Nsbag4
(g5
g6
Ntp3203
Rp3204
(dp3205
g10
Vafter
p3206
sg12
g3206
sg14
VIN
p3207
sg16
Nsbag4
(g5
g6
Ntp3208
Rp3209
(dp3210
g10
g2394
sg12
g2394
sg14
g2395
sg16
Nsbasg2396
S'other'
p3211
sa(dp3212
g2353
(lp3213
g4
(g5
g6
Ntp3214
Rp3215
(dp3216
g10
Vhow
p3217
sg12
VHow
p3218
sg14
VWRB
p3219
sg16
Nsbag4
(g5
g6
Ntp3220
Rp3221
(dp3222
g10
Vold
p3223
sg12
g3223
sg14
VJJ
p3224
sg16
Nsbag4
(g5
g6
Ntp3225
Rp3226
(dp3227
g10
Vbe
p3228
sg12
Vis
p3229
sg14
VVBZ
p3230
sg16
Nsbag4
(g5
g6
Ntp3231
Rp3232
(dp3233
g10
Vharriet
p3234
sg12
VHarriet
p3235
sg14
VNNP
p3236
sg16
Nsbag4
(g5
g6
Ntp3237
Rp3238
(dp3239
g10
Vmiers
p3240
sg12
VMiers
p3241
sg14
VNNP
p3242
sg16
Nsbag4
(g5
g6
Ntp3243
Rp3244
(dp3245
g10
g2394
sg12
g2394
sg14
g2395
sg16
Nsbasg2396
S'howoldis'
p3246
sa(dp3247
g2353
(lp3248
g4
(g5
g6
Ntp3249
Rp3250
(dp3251
g10
Vwhat
p3252
sg12
VWhat
p3253
sg14
VWP
p3254
sg16
Nsbag4
(g5
g6
Ntp3255
Rp3256
(dp3257
g10
Vbe
p3258
sg12
Vare
p3259
sg14
VVBP
p3260
sg16
Nsbag4
(g5
g6
Ntp3261
Rp3262
(dp3263
g10
Vnames
p3264
sg12
g3264
sg14
VRB
p3265
sg16
Nsbag4
(g5
g6
Ntp3266
Rp3267
(dp3268
g10
Vof
p3269
sg12
g3269
sg14
VIN
p3270
sg16
Nsbag4
(g5
g6
Ntp3271
Rp3272
(dp3273
g10
Vice
p3274
sg12
VIce
p3275
sg14
VNNP
p3276
sg16
Nsbag4
(g5
g6
Ntp3277
Rp3278
(dp3279
g10
g3006
sg12
g3006
sg14
g2371
sg16
Nsbag4
(g5
g6
Ntp3280
Rp3281
(dp3282
g10
Vt
p3283
sg12
VT
p3284
sg14
VNNP
p3285
sg16
Nsbag4
(g5
g6
Ntp3286
Rp3287
(dp3288
g10
g2427
sg12
g2427
sg14
VPOS
p3289
sg16
Nsbag4
(g5
g6
Ntp3290
Rp3291
(dp3292
g10
g2432
sg12
g2432
sg14
VNNS
p3293
sg16
Nsbag4
(g5
g6
Ntp3294
Rp3295
(dp3296
g10
Valbum
p3297
sg12
Valbums
p3298
sg14
VNNS
p3299
sg16
Nsbag4
(g5
g6
Ntp3300
Rp3301
(dp3302
g10
g2394
sg12
g2394
sg14
g2395
sg16
Nsbasg2396
S'albumsofband'
p3303
sa(dp3304
g2353
(lp3305
g4
(g5
g6
Ntp3306
Rp3307
(dp3308
g10
Vwhat
p3309
sg12
VWhat
p3310
sg14
VWP
p3311
sg16
Nsbag4
(g5
g6
Ntp3312
Rp3313
(dp3314
g10
Vcan
p3315
sg12
g3315
sg14
VMD
p3316
sg16
Nsbag4
(g5
g6
Ntp3317
Rp3318
(dp3319
g10
Vbe
p3320
sg12
g3320
sg14
VVB
p3321
sg16
Nsbag4
(g5
g6
Ntp3322
Rp3323
(dp3324
g10
Vmake
p3325
sg12
Vmade
p3326
sg14
VVBN
p3327
sg16
Nsbag4
(g5
g6
Ntp3328
Rp3329
(dp3330
g10
Vfrom
p3331
sg12
g3331
sg14
VIN
p3332
sg16
Nsbag4
(g5
g6
Ntp3333
Rp3334
(dp3335
g10
Vmarsupial
p3336
sg12
g3336
sg14
VJJ
p3337
sg16
Nsbag4
(g5
g6
Ntp3338
Rp3339
(dp3340
g10
Vmanure
p3341
sg12
g3341
sg14
VNN
p3342
sg16
Nsbag4
(g5
g6
Ntp3343
Rp3344
(dp3345
g10
g2394
sg12
g2394
sg14
g2395
sg16
Nsbasg2396
S'other'
p3346
sa(dp3347
g2353
(lp3348
g4
(g5
g6
Ntp3349
Rp3350
(dp3351
g10
Vwho
p3352
sg12
VWho
p3353
sg14
VWP
p3354
sg16
Nsbag4
(g5
g6
Ntp3355
Rp3356
(dp3357
g10
Vinvent
p3358
sg12
Vinvented
p3359
sg14
VVBN
p3360
sg16
Nsbag4
(g5
g6
Ntp3361
Rp3362
(dp3363
g10
Vthe
p3364
sg12
g3364
sg14
VDT
p3365
sg16
Nsbag4
(g5
g6
Ntp3366
Rp3367
(dp3368
g10
Vroad
p3369
sg12
g3369
sg14
VNN
p3370
sg16
Nsbag4
(g5
g6
Ntp3371
Rp3372
(dp3373
g10
Vtraffic
p3374
sg12
g3374
sg14
VNN
p3375
sg16
Nsbag4
(g5
g6
Ntp3376
Rp3377
(dp3378
g10
Vcone
p3379
sg12
g3379
sg14
VNN
p3380
sg16
Nsbasg2396
S'other'
p3381
sa(dp3382
g2353
(lp3383
g4
(g5
g6
Ntp3384
Rp3385
(dp3386
g10
Vwhere
p3387
sg12
VWhere
p3388
sg14
VWRB
p3389
sg16
Nsbag4
(g5
g6
Ntp3390
Rp3391
(dp3392
g10
Vbe
p3393
sg12
Vwas
p3394
sg14
VVBD
p3395
sg16
Nsbag4
(g5
g6
Ntp3396
Rp3397
(dp3398
g10
Vgeorge
p3399
sg12
VGeorge
p3400
sg14
VNNP
p3401
sg16
Nsbag4
(g5
g6
Ntp3402
Rp3403
(dp3404
g10
Vwashington
p3405
sg12
VWashington
p3406
sg14
VNNP
p3407
sg16
Nsbag4
(g5
g6
Ntp3408
Rp3409
(dp3410
g10
Vborn
p3411
sg12
g3411
sg14
VNN
p3412
sg16
Nsbasg2396
S'whereisfrom'
p3413
sa(dp3414
g2353
(lp3415
g4
(g5
g6
Ntp3416
Rp3417
(dp3418
g10
Vin
p3419
sg12
VIn
p3420
sg14
VIN
p3421
sg16
Nsbag4
(g5
g6
Ntp3422
Rp3423
(dp3424
g10
Vwhat
p3425
sg12
g3425
sg14
VWP
p3426
sg16
Nsbag4
(g5
g6
Ntp3427
Rp3428
(dp3429
g10
Vyear
p3430
sg12
g3430
sg14
VNN
p3431
sg16
Nsbag4
(g5
g6
Ntp3432
Rp3433
(dp3434
g10
Vdo
p3435
sg12
Vdid
p3436
sg14
VVBD
p3437
sg16
Nsbag4
(g5
g6
Ntp3438
Rp3439
(dp3440
g10
Vkurt
p3441
sg12
VKurt
p3442
sg14
VNNP
p3443
sg16
Nsbag4
(g5
g6
Ntp3444
Rp3445
(dp3446
g10
Vweill
p3447
sg12
VWeill
p3448
sg14
VNNP
p3449
sg16
Nsbag4
(g5
g6
Ntp3450
Rp3451
(dp3452
g10
Vdie
p3453
sg12
g3453
sg14
VVB
p3454
sg16
Nsbag4
(g5
g6
Ntp3455
Rp3456
(dp3457
g10
g2394
sg12
g2394
sg14
g2395
sg16
Nsbasg2396
S'other'
p3458
sa(dp3459
g2353
(lp3460
g4
(g5
g6
Ntp3461
Rp3462
(dp3463
g10
Vwhat
p3464
sg12
VWhat
p3465
sg14
VWP
p3466
sg16
Nsbag4
(g5
g6
Ntp3467
Rp3468
(dp3469
g10
Vhead
p3470
sg12
g3470
sg14
VNN
p3471
sg16
Nsbag4
(g5
g6
Ntp3472
Rp3473
(dp3474
g10
Vcoach
p3475
sg12
Vcoaches
p3476
sg14
VVBZ
p3477
sg16
Nsbag4
(g5
g6
Ntp3478
Rp3479
(dp3480
g10
Vhave
p3481
sg12
Vhad
p3482
sg14
VVBN
p3483
sg16
Nsbag4
(g5
g6
Ntp3484
Rp3485
(dp3486
g10
Vteam
p3487
sg12
Vteams
p3488
sg14
VNNS
p3489
sg16
Nsbag4
(g5
g6
Ntp3490
Rp3491
(dp3492
g10
Vin
p3493
sg12
g3493
sg14
VIN
p3494
sg16
Nsbag4
(g5
g6
Ntp3495
Rp3496
(dp3497
g10
Vthe
p3498
sg12
g3498
sg14
VDT
p3499
sg16
Nsbag4
(g5
g6
Ntp3500
Rp3501
(dp3502
g10
Vmadness
p3503
sg12
VMadness
p3504
sg14
VNNP
p3505
sg16
Nsbag4
(g5
g6
Ntp3506
Rp3507
(dp3508
g10
g2394
sg12
g2394
sg14
g2395
sg16
Nsbasg2396
S'other'
p3509
sa(dp3510
g2353
(lp3511
g4
(g5
g6
Ntp3512
Rp3513
(dp3514
g10
Vwhat
p3515
sg12
VWhat
p3516
sg14
VWP
p3517
sg16
Nsbag4
(g5
g6
Ntp3518
Rp3519
(dp3520
g10
Vorganism
p3521
sg12
g3521
sg14
VNN
p3522
sg16
Nsbag4
(g5
g6
Ntp3523
Rp3524
(dp3525
g10
Vcause
p3526
sg12
Vcauses
p3527
sg14
VNNS
p3528
sg16
Nsbag4
(g5
g6
Ntp3529
Rp3530
(dp3531
g10
Vlyme
p3532
sg12
VLyme
p3533
sg14
VNNP
p3534
sg16
Nsbag4
(g5
g6
Ntp3535
Rp3536
(dp3537
g10
Vdisease
p3538
sg12
g3538
sg14
VNN
p3539
sg16
Nsbag4
(g5
g6
Ntp3540
Rp3541
(dp3542
g10
g2394
sg12
g2394
sg14
g2395
sg16
Nsbasg2396
S'other'
p3543
sa(dp3544
g2353
(lp3545
g4
(g5
g6
Ntp3546
Rp3547
(dp3548
g10
Vhow
p3549
sg12
VHow
p3550
sg14
VWRB
p3551
sg16
Nsbag4
(g5
g6
Ntp3552
Rp3553
(dp3554
g10
Vlong
p3555
sg12
g3555
sg14
VJJ
p3556
sg16
Nsbag4
(g5
g6
Ntp3557
Rp3558
(dp3559
g10
Va
p3560
sg12
g3560
sg14
VDT
p3561
sg16
Nsbag4
(g5
g6
Ntp3562
Rp3563
(dp3564
g10
Vterm
p3565
sg12
g3565
sg14
VNN
p3566
sg16
Nsbag4
(g5
g6
Ntp3567
Rp3568
(dp3569
g10
Vdo
p3570
sg12
g3570
sg14
VVBP
p3571
sg16
Nsbag4
(g5
g6
Ntp3572
Rp3573
(dp3574
g10
Vfisa
p3575
sg12
VFISA
p3576
sg14
VNNP
p3577
sg16
Nsbag4
(g5
g6
Ntp3578
Rp3579
(dp3580
g10
Vjudges
p3581
sg12
g3581
sg14
VNNS
p3582
sg16
Nsbag4
(g5
g6
Ntp3583
Rp3584
(dp3585
g10
Vserve
p3586
sg12
g3586
sg14
VVBP
p3587
sg16
Nsbag4
(g5
g6
Ntp3588
Rp3589
(dp3590
g10
g2394
sg12
g2394
sg14
g2395
sg16
Nsbasg2396
S'other'
p3591
sa(dp3592
g2353
(lp3593
g4
(g5
g6
Ntp3594
Rp3595
(dp3596
g10
Vin
p3597
sg12
VIn
p3598
sg14
VIN
p3599
sg16
Nsbag4
(g5
g6
Ntp3600
Rp3601
(dp3602
g10
Vwhat
p3603
sg12
g3603
sg14
VWP
p3604
sg16
Nsbag4
(g5
g6
Ntp3605
Rp3606
(dp3607
g10
Vyear
p3608
sg12
g3608
sg14
VNN
p3609
sg16
Nsbag4
(g5
g6
Ntp3610
Rp3611
(dp3612
g10
Vdo
p3613
sg12
Vdid
p3614
sg14
VVBD
p3615
sg16
Nsbag4
(g5
g6
Ntp3616
Rp3617
(dp3618
g10
Vsir
p3619
sg12
VSir
p3620
sg14
VNNP
p3621
sg16
Nsbag4
(g5
g6
Ntp3622
Rp3623
(dp3624
g10
Vedmund
p3625
sg12
VEdmund
p3626
sg14
VNNP
p3627
sg16
Nsbag4
(g5
g6
Ntp3628
Rp3629
(dp3630
g10
Vhillary
p3631
sg12
VHillary
p3632
sg14
VNNP
p3633
sg16
Nsbag4
(g5
g6
Ntp3634
Rp3635
(dp3636
g10
Vsearch
p3637
sg12
g3637
sg14
VNN
p3638
sg16
Nsbag4
(g5
g6
Ntp3639
Rp3640
(dp3641
g10
Vfor
p3642
sg12
g3642
sg14
VIN
p3643
sg16
Nsbag4
(g5
g6
Ntp3644
Rp3645
(dp3646
g10
Vyeti
p3647
sg12
VYeti
p3648
sg14
VNNP
p3649
sg16
Nsbag4
(g5
g6
Ntp3650
Rp3651
(dp3652
g10
g2394
sg12
g2394
sg14
g2395
sg16
Nsbasg2396
S'other'
p3653
sa(dp3654
g2353
(lp3655
g4
(g5
g6
Ntp3656
Rp3657
(dp3658
g10
Vhow
p3659
sg12
VHow
p3660
sg14
VWRB
p3661
sg16
Nsbag4
(g5
g6
Ntp3662
Rp3663
(dp3664
g10
Vmany
p3665
sg12
g3665
sg14
VJJ
p3666
sg16
Nsbag4
(g5
g6
Ntp3667
Rp3668
(dp3669
g10
Vtimes
p3670
sg12
g3670
sg14
VNNS
p3671
sg16
Nsbag4
(g5
g6
Ntp3672
Rp3673
(dp3674
g10
Vdo
p3675
sg12
Vdid
p3676
sg14
VVBD
p3677
sg16
Nsbag4
(g5
g6
Ntp3678
Rp3679
(dp3680
g10
Vsusan
p3681
sg12
VSusan
p3682
sg14
VNNP
p3683
sg16
Nsbag4
(g5
g6
Ntp3684
Rp3685
(dp3686
g10
Vbutcher
p3687
sg12
VButcher
p3688
sg14
VNNP
p3689
sg16
Nsbag4
(g5
g6
Ntp3690
Rp3691
(dp3692
g10
Vwin
p3693
sg12
g3693
sg14
VNN
p3694
sg16
Nsbag4
(g5
g6
Ntp3695
Rp3696
(dp3697
g10
Vthe
p3698
sg12
g3698
sg14
VDT
p3699
sg16
Nsbag4
(g5
g6
Ntp3700
Rp3701
(dp3702
g10
Viditarod
p3703
sg12
VIditarod
p3704
sg14
VNNP
p3705
sg16
Nsbag4
(g5
g6
Ntp3706
Rp3707
(dp3708
g10
Vrace
p3709
sg12
VRace
p3710
sg14
VNNP
p3711
sg16
Nsbag4
(g5
g6
Ntp3712
Rp3713
(dp3714
g10
g2394
sg12
g2394
sg14
g2395
sg16
Nsbasg2396
S'other'
p3715
sa(dp3716
g2353
(lp3717
g4
(g5
g6
Ntp3718
Rp3719
(dp3720
g10
Vwho
p3721
sg12
VWho
p3722
sg14
VWP
p3723
sg16
Nsbag4
(g5
g6
Ntp3724
Rp3725
(dp3726
g10
Vbe
p3727
sg12
Vis
p3728
sg14
VVBZ
p3729
sg16
Nsbag4
(g5
g6
Ntp3730
Rp3731
(dp3732
g10
Vthe
p3733
sg12
g3733
sg14
VDT
p3734
sg16
Nsbag4
(g5
g6
Ntp3735
Rp3736
(dp3737
g10
Vpresident
p3738
sg12
g3738
sg14
VNN
p3739
sg16
Nsbag4
(g5
g6
Ntp3740
Rp3741
(dp3742
g10
Vof
p3743
sg12
g3743
sg14
VIN
p3744
sg16
Nsbag4
(g5
g6
Ntp3745
Rp3746
(dp3747
g10
Vstanford
p3748
sg12
VStanford
p3749
sg14
VNNP
p3750
sg16
Nsbag4
(g5
g6
Ntp3751
Rp3752
(dp3753
g10
Vuniversity
p3754
sg12
VUniversity
p3755
sg14
VNNP
p3756
sg16
Nsbasg2396
S'other'
p3757
sa(dp3758
g2353
(lp3759
g4
(g5
g6
Ntp3760
Rp3761
(dp3762
g10
Vhow
p3763
sg12
VHow
p3764
sg14
VWRB
p3765
sg16
Nsbag4
(g5
g6
Ntp3766
Rp3767
(dp3768
g10
Vmany
p3769
sg12
g3769
sg14
VJJ
p3770
sg16
Nsbag4
(g5
g6
Ntp3771
Rp3772
(dp3773
g10
Vvehicle
p3774
sg12
Vvehicles
p3775
sg14
VNNS
p3776
sg16
Nsbag4
(g5
g6
Ntp3777
Rp3778
(dp3779
g10
Vtake
p3780
sg12
Vtook
p3781
sg14
VVBD
p3782
sg16
Nsbag4
(g5
g6
Ntp3783
Rp3784
(dp3785
g10
Vpart
p3786
sg12
g3786
sg14
VNN
p3787
sg16
Nsbag4
(g5
g6
Ntp3788
Rp3789
(dp3790
g10
Vin
p3791
sg12
g3791
sg14
VIN
p3792
sg16
Nsbag4
(g5
g6
Ntp3793
Rp3794
(dp3795
g10
Vthe
p3796
sg12
g3796
sg14
VDT
p3797
sg16
Nsbag4
(g5
g6
Ntp3798
Rp3799
(dp3800
g10
Vchallenge
p3801
sg12
VChallenge
p3802
sg14
VNNP
p3803
sg16
Nsbag4
(g5
g6
Ntp3804
Rp3805
(dp3806
g10
g2394
sg12
g2394
sg14
g2395
sg16
Nsbasg2396
S'other'
p3807
sa(dp3808
g2353
(lp3809
g4
(g5
g6
Ntp3810
Rp3811
(dp3812
g10
Vin
p3813
sg12
VIn
p3814
sg14
VIN
p3815
sg16
Nsbag4
(g5
g6
Ntp3816
Rp3817
(dp3818
g10
Vwhat
p3819
sg12
g3819
sg14
VWP
p3820
sg16
Nsbag4
(g5
g6
Ntp3821
Rp3822
(dp3823
g10
Vyear
p3824
sg12
g3824
sg14
VNN
p3825
sg16
Nsbag4
(g5
g6
Ntp3826
Rp3827
(dp3828
g10
Vbe
p3829
sg12
Vwas
p3830
sg14
VVBD
p3831
sg16
Nsbag4
(g5
g6
Ntp3832
Rp3833
(dp3834
g10
Vthe
p3835
sg12
g3835
sg14
VDT
p3836
sg16
Nsbag4
(g5
g6
Ntp3837
Rp3838
(dp3839
g10
Vfirm
p3840
sg12
g3840
sg14
VNN
p3841
sg16
Nsbag4
(g5
g6
Ntp3842
Rp3843
(dp3844
g10
Vfound
p3845
sg12
Vfounded
p3846
sg14
VVBD
p3847
sg16
Nsbag4
(g5
g6
Ntp3848
Rp3849
(dp3850
g10
g2394
sg12
g2394
sg14
g2395
sg16
Nsbasg2396
S'other'
p3851
sa(dp3852
g2353
(lp3853
g4
(g5
g6
Ntp3854
Rp3855
(dp3856
g10
Vwho
p3857
sg12
VWho
p3858
sg14
VWP
p3859
sg16
Nsbag4
(g5
g6
Ntp3860
Rp3861
(dp3862
g10
Vbe
p3863
sg12
Vwere
p3864
sg14
VVBD
p3865
sg16
Nsbag4
(g5
g6
Ntp3866
Rp3867
(dp3868
g10
Vleaders
p3869
sg12
g3869
sg14
VNNS
p3870
sg16
Nsbag4
(g5
g6
Ntp3871
Rp3872
(dp3873
g10
Vof
p3874
sg12
g3874
sg14
VIN
p3875
sg16
Nsbag4
(g5
g6
Ntp3876
Rp3877
(dp3878
g10
Vthe
p3879
sg12
g3879
sg14
VDT
p3880
sg16
Nsbag4
(g5
g6
Ntp3881
Rp3882
(dp3883
g10
Vkhmer
p3884
sg12
VKhmer
p3885
sg14
VNNP
p3886
sg16
Nsbag4
(g5
g6
Ntp3887
Rp3888
(dp3889
g10
Vrouge
p3890
sg12
VRouge
p3891
sg14
VNNP
p3892
sg16
Nsbag4
(g5
g6
Ntp3893
Rp3894
(dp3895
g10
g2394
sg12
g2394
sg14
g2395
sg16
Nsbasg2396
S'other'
p3896
sa(dp3897
g2353
(lp3898
g4
(g5
g6
Ntp3899
Rp3900
(dp3901
g10
Vin
p3902
sg12
VIn
p3903
sg14
VIN
p3904
sg16
Nsbag4
(g5
g6
Ntp3905
Rp3906
(dp3907
g10
Vwhat
p3908
sg12
g3908
sg14
VWP
p3909
sg16
Nsbag4
(g5
g6
Ntp3910
Rp3911
(dp3912
g10
Vcountry
p3913
sg12
Vcountries
p3914
sg14
VNNS
p3915
sg16
Nsbag4
(g5
g6
Ntp3916
Rp3917
(dp3918
g10
Vcan
p3919
sg12
g3919
sg14
VMD
p3920
sg16
Nsbag4
(g5
g6
Ntp3921
Rp3922
(dp3923
g10
Vfulbright
p3924
sg12
VFulbright
p3925
sg14
VVB
p3926
sg16
Nsbag4
(g5
g6
Ntp3927
Rp3928
(dp3929
g10
Vscholar
p3930
sg12
Vscholars
p3931
sg14
VNNS
p3932
sg16
Nsbag4
(g5
g6
Ntp3933
Rp3934
(dp3935
g10
Vbe
p3936
sg12
g3936
sg14
VVB
p3937
sg16
Nsbag4
(g5
g6
Ntp3938
Rp3939
(dp3940
g10
Vfound
p3941
sg12
g3941
sg14
VVBN
p3942
sg16
Nsbag4
(g5
g6
Ntp3943
Rp3944
(dp3945
g10
g2394
sg12
g2394
sg14
g2395
sg16
Nsbasg2396
S'other'
p3946
sa(dp3947
g2353
(lp3948
g4
(g5
g6
Ntp3949
Rp3950
(dp3951
g10
Vhow
p3952
sg12
VHow
p3953
sg14
VWRB
p3954
sg16
Nsbag4
(g5
g6
Ntp3955
Rp3956
(dp3957
g10
Vmany
p3958
sg12
g3958
sg14
VJJ
p3959
sg16
Nsbag4
(g5
g6
Ntp3960
Rp3961
(dp3962
g10
Vminer
p3963
sg12
Vminers
p3964
sg14
VNNS
p3965
sg16
Nsbag4
(g5
g6
Ntp3966
Rp3967
(dp3968
g10
Vdie
p3969
sg12
Vdied
p3970
sg14
VVBD
p3971
sg16
Nsbag4
(g5
g6
Ntp3972
Rp3973
(dp3974
g10
Vin
p3975
sg12
g3975
sg14
VIN
p3976
sg16
Nsbag4
(g5
g6
Ntp3977
Rp3978
(dp3979
g10
Vthe
p3980
sg12
g3980
sg14
VDT
p3981
sg16
Nsbag4
(g5
g6
Ntp3982
Rp3983
(dp3984
g10
Vdisaster
p3985
sg12
g3985
sg14
VNN
p3986
sg16
Nsbag4
(g5
g6
Ntp3987
Rp3988
(dp3989
g10
g2394
sg12
g2394
sg14
g2395
sg16
Nsbasg2396
S'other'
p3990
sa(dp3991
g2353
(lp3992
g4
(g5
g6
Ntp3993
Rp3994
(dp3995
g10
Vin
p3996
sg12
VIn
p3997
sg14
VIN
p3998
sg16
Nsbag4
(g5
g6
Ntp3999
Rp4000
(dp4001
g10
Vwhat
p4002
sg12
g4002
sg14
VWP
p4003
sg16
Nsbag4
(g5
g6
Ntp4004
Rp4005
(dp4006
g10
Vcity
p4007
sg12
g4007
sg14
VNN
p4008
sg16
Nsbag4
(g5
g6
Ntp4009
Rp4010
(dp4011
g10
Vbe
p4012
sg12
Vis
p4013
sg14
VVBZ
p4014
sg16
Nsbag4
(g5
g6
Ntp4015
Rp4016
(dp4017
g10
Vthis
p4018
sg12
g4018
sg14
VDT
p4019
sg16
Nsbag4
(g5
g6
Ntp4020
Rp4021
(dp4022
g10
Vcorporation
p4023
sg12
g4023
sg14
VNN
p4024
sg16
Nsbag4
(g5
g6
Ntp4025
Rp4026
(dp4027
g10
Vbase
p4028
sg12
Vbased
p4029
sg14
VVBN
p4030
sg16
Nsbag4
(g5
g6
Ntp4031
Rp4032
(dp4033
g10
g2394
sg12
g2394
sg14
g2395
sg16
Nsbasg2396
S'other'
p4034
sa(dp4035
g2353
(lp4036
g4
(g5
g6
Ntp4037
Rp4038
(dp4039
g10
Vwho
p4040
sg12
VWho
p4041
sg14
VWP
p4042
sg16
Nsbag4
(g5
g6
Ntp4043
Rp4044
(dp4045
g10
Vhave
p4046
sg12
Vhas
p4047
sg14
VVBZ
p4048
sg16
Nsbag4
(g5
g6
Ntp4049
Rp4050
(dp4051
g10
Vserve
p4052
sg12
Vserved
p4053
sg14
VVBN
p4054
sg16
Nsbag4
(g5
g6
Ntp4055
Rp4056
(dp4057
g10
Vlong
p4058
sg12
Vlonger
p4059
sg14
VJJR
p4060
sg16
Nsbag4
(g5
g6
Ntp4061
Rp4062
(dp4063
g10
Vin
p4064
sg12
g4064
sg14
VIN
p4065
sg16
Nsbag4
(g5
g6
Ntp4066
Rp4067
(dp4068
g10
Vthis
p4069
sg12
g4069
sg14
VDT
p4070
sg16
Nsbag4
(g5
g6
Ntp4071
Rp4072
(dp4073
g10
Vposition
p4074
sg12
g4074
sg14
VNN
p4075
sg16
Nsbag4
(g5
g6
Ntp4076
Rp4077
(dp4078
g10
g2394
sg12
g2394
sg14
g2395
sg16
Nsbasg2396
S'other'
p4079
sa(dp4080
g2353
(lp4081
g4
(g5
g6
Ntp4082
Rp4083
(dp4084
g10
Vwhere
p4085
sg12
VWhere
p4086
sg14
VWRB
p4087
sg16
Nsbag4
(g5
g6
Ntp4088
Rp4089
(dp4090
g10
Vbe
p4091
sg12
Vwas
p4092
sg14
VVBD
p4093
sg16
Nsbag4
(g5
g6
Ntp4094
Rp4095
(dp4096
g10
Vulysses
p4097
sg12
VUlysses
p4098
sg14
VNNP
p4099
sg16
Nsbag4
(g5
g6
Ntp4100
Rp4101
(dp4102
g10
Vgrant
p4103
sg12
VGrant
p4104
sg14
VNNP
p4105
sg16
Nsbag4
(g5
g6
Ntp4106
Rp4107
(dp4108
g10
Vborden
p4109
sg12
VBorden
p4110
sg14
VNNP
p4111
sg16
Nsbasg2396
S'whereisfrom'
p4112
sa(dp4113
g2353
(lp4114
g4
(g5
g6
Ntp4115
Rp4116
(dp4117
g10
Vhow
p4118
sg12
VHow
p4119
sg14
VWRB
p4120
sg16
Nsbag4
(g5
g6
Ntp4121
Rp4122
(dp4123
g10
Vlong
p4124
sg12
g4124
sg14
VJJ
p4125
sg16
Nsbag4
(g5
g6
Ntp4126
Rp4127
(dp4128
g10
Vdid
p4129
sg12
g4129
sg14
VNN
p4130
sg16
Nsbag4
(g5
g6
Ntp4131
Rp4132
(dp4133
g10
Vthe
p4134
sg12
g4134
sg14
VDT
p4135
sg16
Nsbag4
(g5
g6
Ntp4136
Rp4137
(dp4138
g10
Vcharles
p4139
sg12
VCharles
p4140
sg14
VNNP
p4141
sg16
Nsbag4
(g5
g6
Ntp4142
Rp4143
(dp4144
g10
Vmanson
p4145
sg12
VManson
p4146
sg14
VNNP
p4147
sg16
Nsbag4
(g5
g6
Ntp4148
Rp4149
(dp4150
g10
Vmurder
p4151
sg12
g4151
sg14
VNN
p4152
sg16
Nsbag4
(g5
g6
Ntp4153
Rp4154
(dp4155
g10
Vtrial
p4156
sg12
g4156
sg14
VNN
p4157
sg16
Nsbag4
(g5
g6
Ntp4158
Rp4159
(dp4160
g10
Vlast
p4161
sg12
g4161
sg14
VJJ
p4162
sg16
Nsbasg2396
S'other'
p4163
sa(dp4164
g2353
(lp4165
g4
(g5
g6
Ntp4166
Rp4167
(dp4168
g10
Vwhat
p4169
sg12
VWhat
p4170
sg14
VWP
p4171
sg16
Nsbag4
(g5
g6
Ntp4172
Rp4173
(dp4174
g10
Vbook
p4175
sg12
Vbooks
p4176
sg14
VNNS
p4177
sg16
Nsbag4
(g5
g6
Ntp4178
Rp4179
(dp4180
g10
Vhave
p4181
sg12
Vhas
p4182
sg14
VVBZ
p4183
sg16
Nsbag4
(g5
g6
Ntp4184
Rp4185
(dp4186
g10
Vlimbaugh
p4187
sg12
VLimbaugh
p4188
sg14
VNNP
p4189
sg16
Nsbag4
(g5
g6
Ntp4190
Rp4191
(dp4192
g10
Vwrite
p4193
sg12
Vwritten
p4194
sg14
VVBN
p4195
sg16
Nsbag4
(g5
g6
Ntp4196
Rp4197
(dp4198
g10
g2394
sg12
g2394
sg14
g2395
sg16
Nsbasg2396
S'booksbyauthor'
p4199
sa(dp4200
g2353
(lp4201
g4
(g5
g6
Ntp4202
Rp4203
(dp4204
g10
Vwho
p4205
sg12
VWho
p4206
sg14
VWP
p4207
sg16
Nsbag4
(g5
g6
Ntp4208
Rp4209
(dp4210
g10
Vhave
p4211
sg12
Vhas
p4212
sg14
VVBZ
p4213
sg16
Nsbag4
(g5
g6
Ntp4214
Rp4215
(dp4216
g10
Vemploy
p4217
sg12
Vemployed
p4218
sg14
VVBN
p4219
sg16
Nsbag4
(g5
g6
Ntp4220
Rp4221
(dp4222
g10
Vsteffen
p4223
sg12
VSteffen
p4224
sg14
VNNP
p4225
sg16
Nsbag4
(g5
g6
Ntp4226
Rp4227
(dp4228
g10
g2394
sg12
g2394
sg14
g2395
sg16
Nsbasg2396
S'other'
p4229
sa(dp4230
g2353
(lp4231
g4
(g5
g6
Ntp4232
Rp4233
(dp4234
g10
Vin
p4235
sg12
VIn
p4236
sg14
VIN
p4237
sg16
Nsbag4
(g5
g6
Ntp4238
Rp4239
(dp4240
g10
Vwhat
p4241
sg12
g4241
sg14
VWP
p4242
sg16
Nsbag4
(g5
g6
Ntp4243
Rp4244
(dp4245
g10
Vcity
p4246
sg12
g4246
sg14
VNN
p4247
sg16
Nsbag4
(g5
g6
Ntp4248
Rp4249
(dp4250
g10
Vand
p4251
sg12
g4251
sg14
VCC
p4252
sg16
Nsbag4
(g5
g6
Ntp4253
Rp4254
(dp4255
g10
Vstate
p4256
sg12
g4256
sg14
VNN
p4257
sg16
Nsbag4
(g5
g6
Ntp4258
Rp4259
(dp4260
g10
Vbe
p4261
sg12
Vare
p4262
sg14
VVBP
p4263
sg16
Nsbag4
(g5
g6
Ntp4264
Rp4265
(dp4266
g10
Vhabitat
p4267
sg12
VHabitat
p4268
sg14
VNNP
p4269
sg16
Nsbag4
(g5
g6
Ntp4270
Rp4271
(dp4272
g10
Vfor
p4273
sg12
g4273
sg14
VIN
p4274
sg16
Nsbag4
(g5
g6
Ntp4275
Rp4276
(dp4277
g10
Vhumanity
p4278
sg12
VHumanity
p4279
sg14
VNNP
p4280
sg16
Nsbag4
(g5
g6
Ntp4281
Rp4282
(dp4283
g10
Vinternational
p4284
sg12
VInternational
p4285
sg14
VNNP
p4286
sg16
Nsbag4
(g5
g6
Ntp4287
Rp4288
(dp4289
g10
Vheadquarters
p4290
sg12
g4290
sg14
VNN
p4291
sg16
Nsbag4
(g5
g6
Ntp4292
Rp4293
(dp4294
g10
g2394
sg12
g2394
sg14
g2395
sg16
Nsbasg2396
S'whereis'
p4295
sa(dp4296
g2353
(lp4297
g4
(g5
g6
Ntp4298
Rp4299
(dp4300
g10
Vwhen
p4301
sg12
VWhen
p4302
sg14
VWRB
p4303
sg16
Nsbag4
(g5
g6
Ntp4304
Rp4305
(dp4306
g10
Vdo
p4307
sg12
Vdid
p4308
sg14
VVBD
p4309
sg16
Nsbag4
(g5
g6
Ntp4310
Rp4311
(dp4312
g10
Vthe
p4313
sg12
g4313
sg14
VDT
p4314
sg16
Nsbag4
(g5
g6
Ntp4315
Rp4316
(dp4317
g10
Vu
p4318
sg12
VU
p4319
sg14
VNNP
p4320
sg16
Nsbag4
(g5
g6
Ntp4321
Rp4322
(dp4323
g10
g2395
sg12
g2395
sg14
g2395
sg16
Nsbag4
(g5
g6
Ntp4324
Rp4325
(dp4326
g10
Vs
p4327
sg12
VS
p4328
sg14
VNNP
p4329
sg16
Nsbag4
(g5
g6
Ntp4330
Rp4331
(dp4332
g10
g2395
sg12
g2395
sg14
g2395
sg16
Nsbag4
(g5
g6
Ntp4333
Rp4334
(dp4335
g10
Vcongress
p4336
sg12
VCongress
p4337
sg14
VNNP
p4338
sg16
Nsbag4
(g5
g6
Ntp4339
Rp4340
(dp4341
g10
Vapprove
p4342
sg12
g4342
sg14
VVBP
p4343
sg16
Nsbag4
(g5
g6
Ntp4344
Rp4345
(dp4346
g10
Vcafta
p4347
sg12
VCAFTA
p4348
sg14
VNNP
p4349
sg16
Nsbag4
(g5
g6
Ntp4350
Rp4351
(dp4352
g10
g2394
sg12
g2394
sg14
g2395
sg16
Nsbasg2396
S'other'
p4353
sa(dp4354
g2353
(lp4355
g4
(g5
g6
Ntp4356
Rp4357
(dp4358
g10
Vwhat
p4359
sg12
VWhat
p4360
sg14
VWP
p4361
sg16
Nsbag4
(g5
g6
Ntp4362
Rp4363
(dp4364
g10
Vbe
p4365
sg12
Vis
p4366
sg14
VVBZ
p4367
sg16
Nsbag4
(g5
g6
Ntp4368
Rp4369
(dp4370
g10
Vthe
p4371
sg12
g4371
sg14
VDT
p4372
sg16
Nsbag4
(g5
g6
Ntp4373
Rp4374
(dp4375
g10
Vname
p4376
sg12
g4376
sg14
VNN
p4377
sg16
Nsbag4
(g5
g6
Ntp4378
Rp4379
(dp4380
g10
Vof
p4381
sg12
g4381
sg14
VIN
p4382
sg16
Nsbag4
(g5
g6
Ntp4383
Rp4384
(dp4385
g10
Vthe
p4386
sg12
g4386
sg14
VDT
p4387
sg16
Nsbag4
(g5
g6
Ntp4388
Rp4389
(dp4390
g10
Vlarge
p4391
sg12
Vlargest
p4392
sg14
VJJS
p4393
sg16
Nsbag4
(g5
g6
Ntp4394
Rp4395
(dp4396
g10
Vship
p4397
sg12
g4397
sg14
VNN
p4398
sg16
Nsbag4
(g5
g6
Ntp4399
Rp4400
(dp4401
g10
Vin
p4402
sg12
g4402
sg14
VIN
p4403
sg16
Nsbag4
(g5
g6
Ntp4404
Rp4405
(dp4406
g10
Vcunard
p4407
sg12
VCunard
p4408
sg14
VNNP
p4409
sg16
Nsbag4
(g5
g6
Ntp4410
Rp4411
(dp4412
g10
Vcruise
p4413
sg12
VCruise
p4414
sg14
VNNP
p4415
sg16
Nsbag4
(g5
g6
Ntp4416
Rp4417
(dp4418
g10
Vlines
p4419
sg12
VLines
p4420
sg14
VNNP
p4421
sg16
Nsbag4
(g5
g6
Ntp4422
Rp4423
(dp4424
g10
g2394
sg12
g2394
sg14
g2395
sg16
Nsbasg2396
S'other'
p4425
sa(dp4426
g2353
(lp4427
g4
(g5
g6
Ntp4428
Rp4429
(dp4430
g10
Vat
p4431
sg12
VAt
p4432
sg14
VIN
p4433
sg16
Nsbag4
(g5
g6
Ntp4434
Rp4435
(dp4436
g10
Vwhat
p4437
sg12
g4437
sg14
VWP
p4438
sg16
Nsbag4
(g5
g6
Ntp4439
Rp4440
(dp4441
g10
Vgovernment
p4442
sg12
g4442
sg14
VNN
p4443
sg16
Nsbag4
(g5
g6
Ntp4444
Rp4445
(dp4446
g10
Vagency
p4447
sg12
g4447
sg14
VNN
p4448
sg16
Nsbag4
(g5
g6
Ntp4449
Rp4450
(dp4451
g10
Vbe
p4452
sg12
Vwere
p4453
sg14
VVBD
p4454
sg16
Nsbag4
(g5
g6
Ntp4455
Rp4456
(dp4457
g10
Vthe
p4458
sg12
g4458
sg14
VDT
p4459
sg16
Nsbag4
(g5
g6
Ntp4460
Rp4461
(dp4462
g10
Vwinning
p4463
sg12
g4463
sg14
VNN
p4464
sg16
Nsbag4
(g5
g6
Ntp4465
Rp4466
(dp4467
g10
Vvehicle
p4468
sg12
Vvehicles
p4469
sg14
VNNS
p4470
sg16
Nsbag4
(g5
g6
Ntp4471
Rp4472
(dp4473
g10
Von
p4474
sg12
g4474
sg14
VIN
p4475
sg16
Nsbag4
(g5
g6
Ntp4476
Rp4477
(dp4478
g10
Vdisplay
p4479
sg12
g4479
sg14
VNN
p4480
sg16
Nsbag4
(g5
g6
Ntp4481
Rp4482
(dp4483
g10
g2394
sg12
g2394
sg14
g2395
sg16
Nsbasg2396
S'other'
p4484
sa(dp4485
g2353
(lp4486
g4
(g5
g6
Ntp4487
Rp4488
(dp4489
g10
Vwho
p4490
sg12
VWho
p4491
sg14
VWP
p4492
sg16
Nsbag4
(g5
g6
Ntp4493
Rp4494
(dp4495
g10
Vfirst
p4496
sg12
g4496
sg14
VRB
p4497
sg16
Nsbag4
(g5
g6
Ntp4498
Rp4499
(dp4500
g10
Vcircumnavigate
p4501
sg12
Vcircumnavigated
p4502
sg14
VVBD
p4503
sg16
Nsbag4
(g5
g6
Ntp4504
Rp4505
(dp4506
g10
Vthe
p4507
sg12
g4507
sg14
VDT
p4508
sg16
Nsbag4
(g5
g6
Ntp4509
Rp4510
(dp4511
g10
Vglobe
p4512
sg12
g4512
sg14
VNN
p4513
sg16
Nsbasg2396
S'other'
p4514
sa(dp4515
g2353
(lp4516
g4
(g5
g6
Ntp4517
Rp4518
(dp4519
g10
Vin
p4520
sg12
VIn
p4521
sg14
VIN
p4522
sg16
Nsbag4
(g5
g6
Ntp4523
Rp4524
(dp4525
g10
Vwhat
p4526
sg12
g4526
sg14
VWP
p4527
sg16
Nsbag4
(g5
g6
Ntp4528
Rp4529
(dp4530
g10
Vyear
p4531
sg12
g4531
sg14
VNN
p4532
sg16
Nsbag4
(g5
g6
Ntp4533
Rp4534
(dp4535
g10
Vbe
p4536
sg12
Vwere
p4537
sg14
VVBD
p4538
sg16
Nsbag4
(g5
g6
Ntp4539
Rp4540
(dp4541
g10
Vthe
p4542
sg12
g4542
sg14
VDT
p4543
sg16
Nsbag4
(g5
g6
Ntp4544
Rp4545
(dp4546
g10
Vbuffalo
p4547
sg12
VBuffalo
p4548
sg14
VNNP
p4549
sg16
Nsbag4
(g5
g6
Ntp4550
Rp4551
(dp4552
g10
Vsoldier
p4553
sg12
VSoldier
p4554
sg14
VNNP
p4555
sg16
Nsbag4
(g5
g6
Ntp4556
Rp4557
(dp4558
g10
Vregiment
p4559
sg12
Vregiments
p4560
sg14
VNNS
p4561
sg16
Nsbag4
(g5
g6
Ntp4562
Rp4563
(dp4564
g10
Vdisband
p4565
sg12
Vdisbanded
p4566
sg14
VVBD
p4567
sg16
Nsbag4
(g5
g6
Ntp4568
Rp4569
(dp4570
g10
g2394
sg12
g2394
sg14
g2395
sg16
Nsbasg2396
S'other'
p4571
sa(dp4572
g2353
(lp4573
g4
(g5
g6
Ntp4574
Rp4575
(dp4576
g10
Vwhat
p4577
sg12
VWhat
p4578
sg14
VWP
p4579
sg16
Nsbag4
(g5
g6
Ntp4580
Rp4581
(dp4582
g10
Vdebt
p4583
sg12
Vdebts
p4584
sg14
VNNS
p4585
sg16
Nsbag4
(g5
g6
Ntp4586
Rp4587
(dp4588
g10
Vdo
p4589
sg12
Vdid
p4590
sg14
VVBD
p4591
sg16
Nsbag4
(g5
g6
Ntp4592
Rp4593
(dp4594
g10
Vqintex
p4595
sg12
VQintex
p4596
sg14
VNNP
p4597
sg16
Nsbag4
(g5
g6
Ntp4598
Rp4599
(dp4600
g10
Vgroup
p4601
sg12
g4601
sg14
VNN
p4602
sg16
Nsbag4
(g5
g6
Ntp4603
Rp4604
(dp4605
g10
Vleave
p4606
sg12
g4606
sg14
VVBD
p4607
sg16
Nsbasg2396
S'other'
p4608
sa(dp4609
g2353
(lp4610
g4
(g5
g6
Ntp4611
Rp4612
(dp4613
g10
Vhow
p4614
sg12
VHow
p4615
sg14
VWRB
p4616
sg16
Nsbag4
(g5
g6
Ntp4617
Rp4618
(dp4619
g10
Vmany
p4620
sg12
g4620
sg14
VJJ
p4621
sg16
Nsbag4
(g5
g6
Ntp4622
Rp4623
(dp4624
g10
Vgrant
p4625
sg12
Vgrants
p4626
sg14
VNNS
p4627
sg16
Nsbag4
(g5
g6
Ntp4628
Rp4629
(dp4630
g10
Vdo
p4631
sg12
Vdoes
p4632
sg14
VVBZ
p4633
sg16
Nsbag4
(g5
g6
Ntp4634
Rp4635
(dp4636
g10
Vthe
p4637
sg12
g4637
sg14
VDT
p4638
sg16
Nsbag4
(g5
g6
Ntp4639
Rp4640
(dp4641
g10
Vfulbright
p4642
sg12
VFulbright
p4643
sg14
VNNP
p4644
sg16
Nsbag4
(g5
g6
Ntp4645
Rp4646
(dp4647
g10
Vprogram
p4648
sg12
VProgram
p4649
sg14
VNNP
p4650
sg16
Nsbag4
(g5
g6
Ntp4651
Rp4652
(dp4653
g10
Vaward
p4654
sg12
g4654
sg14
VNN
p4655
sg16
Nsbag4
(g5
g6
Ntp4656
Rp4657
(dp4658
g10
Veach
p4659
sg12
g4659
sg14
VDT
p4660
sg16
Nsbag4
(g5
g6
Ntp4661
Rp4662
(dp4663
g10
Vyear
p4664
sg12
g4664
sg14
VNN
p4665
sg16
Nsbag4
(g5
g6
Ntp4666
Rp4667
(dp4668
g10
g2394
sg12
g2394
sg14
g2395
sg16
Nsbasg2396
S'other'
p4669
sa(dp4670
g2353
(lp4671
g4
(g5
g6
Ntp4672
Rp4673
(dp4674
g10
Vwhat
p4675
sg12
VWhat
p4676
sg14
VWP
p4677
sg16
Nsbag4
(g5
g6
Ntp4678
Rp4679
(dp4680
g10
Vbe
p4681
sg12
Vis
p4682
sg14
VVBZ
p4683
sg16
Nsbag4
(g5
g6
Ntp4684
Rp4685
(dp4686
g10
Vthe
p4687
sg12
g4687
sg14
VDT
p4688
sg16
Nsbag4
(g5
g6
Ntp4689
Rp4690
(dp4691
g10
Vname
p4692
sg12
g4692
sg14
VNN
p4693
sg16
Nsbag4
(g5
g6
Ntp4694
Rp4695
(dp4696
g10
Vof
p4697
sg12
g4697
sg14
VIN
p4698
sg16
Nsbag4
(g5
g6
Ntp4699
Rp4700
(dp4701
g10
Vblondie
p4702
sg12
VBlondie
p4703
sg14
VNNP
p4704
sg16
Nsbag4
(g5
g6
Ntp4705
Rp4706
(dp4707
g10
g2427
sg12
g2427
sg14
VPOS
p4708
sg16
Nsbag4
(g5
g6
Ntp4709
Rp4710
(dp4711
g10
g2432
sg12
g2432
sg14
VNNS
p4712
sg16
Nsbag4
(g5
g6
Ntp4713
Rp4714
(dp4715
g10
Vfather
p4716
sg12
g4716
sg14
VNN
p4717
sg16
Nsbag4
(g5
g6
Ntp4718
Rp4719
(dp4720
g10
g3006
sg12
g3006
sg14
g2371
sg16
Nsbag4
(g5
g6
Ntp4721
Rp4722
(dp4723
g10
Vin
p4724
sg12
g4724
sg14
VIN
p4725
sg16
Nsbag4
(g5
g6
Ntp4726
Rp4727
(dp4728
g10
g3006
sg12
g3006
sg14
g2371
sg16
Nsbag4
(g5
g6
Ntp4729
Rp4730
(dp4731
g10
Vlaw
p4732
sg12
g4732
sg14
VNN
p4733
sg16
Nsbag4
(g5
g6
Ntp4734
Rp4735
(dp4736
g10
g2394
sg12
g2394
sg14
g2395
sg16
Nsbasg2396
S'other'
p4737
sa(dp4738
g2353
(lp4739
g4
(g5
g6
Ntp4740
Rp4741
(dp4742
g10
Vwhat
p4743
sg12
VWhat
p4744
sg14
VWP
p4745
sg16
Nsbag4
(g5
g6
Ntp4746
Rp4747
(dp4748
g10
Vbe
p4749
sg12
Vis
p4750
sg14
VVBZ
p4751
sg16
Nsbag4
(g5
g6
Ntp4752
Rp4753
(dp4754
g10
Vjon
p4755
sg12
VJon
p4756
sg14
VNNP
p4757
sg16
Nsbag4
(g5
g6
Ntp4758
Rp4759
(dp4760
g10
Vbon
p4761
sg12
VBon
p4762
sg14
VNNP
p4763
sg16
Nsbag4
(g5
g6
Ntp4764
Rp4765
(dp4766
g10
Vjovi
p4767
sg12
VJovi
p4768
sg14
VNNP
p4769
sg16
Nsbag4
(g5
g6
Ntp4770
Rp4771
(dp4772
g10
g2427
sg12
g2427
sg14
VPOS
p4773
sg16
Nsbag4
(g5
g6
Ntp4774
Rp4775
(dp4776
g10
g2432
sg12
g2432
sg14
VNNS
p4777
sg16
Nsbag4
(g5
g6
Ntp4778
Rp4779
(dp4780
g10
Vprofession
p4781
sg12
g4781
sg14
VNN
p4782
sg16
Nsbag4
(g5
g6
Ntp4783
Rp4784
(dp4785
g10
g2394
sg12
g2394
sg14
g2395
sg16
Nsbasg2396
S'other'
p4786
sa(dp4787
g2353
(lp4788
g4
(g5
g6
Ntp4789
Rp4790
(dp4791
g10
Vhow
p4792
sg12
VHow
p4793
sg14
VWRB
p4794
sg16
Nsbag4
(g5
g6
Ntp4795
Rp4796
(dp4797
g10
Vmany
p4798
sg12
g4798
sg14
VJJ
p4799
sg16
Nsbag4
(g5
g6
Ntp4800
Rp4801
(dp4802
g10
Vmonument
p4803
sg12
Vmonuments
p4804
sg14
VNNS
p4805
sg16
Nsbag4
(g5
g6
Ntp4806
Rp4807
(dp4808
g10
Vbe
p4809
sg12
Vare
p4810
sg14
VVBP
p4811
sg16
Nsbag4
(g5
g6
Ntp4812
Rp4813
(dp4814
g10
Vthere
p4815
sg12
g4815
sg14
VRB
p4816
sg16
Nsbag4
(g5
g6
Ntp4817
Rp4818
(dp4819
g10
Vin
p4820
sg12
g4820
sg14
VIN
p4821
sg16
Nsbag4
(g5
g6
Ntp4822
Rp4823
(dp4824
g10
Vangkor
p4825
sg12
VAngkor
p4826
sg14
VNNP
p4827
sg16
Nsbag4
(g5
g6
Ntp4828
Rp4829
(dp4830
g10
Vwat
p4831
sg12
VWat
p4832
sg14
VNNP
p4833
sg16
Nsbag4
(g5
g6
Ntp4834
Rp4835
(dp4836
g10
g2394
sg12
g2394
sg14
g2395
sg16
Nsbasg2396
S'other'
p4837
sa(dp4838
g2353
(lp4839
g4
(g5
g6
Ntp4840
Rp4841
(dp4842
g10
Von
p4843
sg12
VOn
p4844
sg14
VIN
p4845
sg16
Nsbag4
(g5
g6
Ntp4846
Rp4847
(dp4848
g10
Vwhat
p4849
sg12
g4849
sg14
VWP
p4850
sg16
Nsbag4
(g5
g6
Ntp4851
Rp4852
(dp4853
g10
Vdate
p4854
sg12
g4854
sg14
VNN
p4855
sg16
Nsbag4
(g5
g6
Ntp4856
Rp4857
(dp4858
g10
Vbe
p4859
sg12
Vwas
p4860
sg14
VVBD
p4861
sg16
Nsbag4
(g5
g6
Ntp4862
Rp4863
(dp4864
g10
Vthe
p4865
sg12
g4865
sg14
VDT
p4866
sg16
Nsbag4
(g5
g6
Ntp4867
Rp4868
(dp4869
g10
Vpresidential
p4870
sg12
g4870
sg14
VJJ
p4871
sg16
Nsbag4
(g5
g6
Ntp4872
Rp4873
(dp4874
g10
Velection
p4875
sg12
g4875
sg14
VNN
p4876
sg16
Nsbag4
(g5
g6
Ntp4877
Rp4878
(dp4879
g10
Vheld
p4880
sg12
g4880
sg14
VNN
p4881
sg16
Nsbag4
(g5
g6
Ntp4882
Rp4883
(dp4884
g10
g2394
sg12
g2394
sg14
g2395
sg16
Nsbasg2396
S'other'
p4885
sa(dp4886
g2353
(lp4887
g4
(g5
g6
Ntp4888
Rp4889
(dp4890
g10
Vwhat
p4891
sg12
VWhat
p4892
sg14
VWP
p4893
sg16
Nsbag4
(g5
g6
Ntp4894
Rp4895
(dp4896
g10
Vbe
p4897
sg12
Vwas
p4898
sg14
VVBD
p4899
sg16
Nsbag4
(g5
g6
Ntp4900
Rp4901
(dp4902
g10
Vthe
p4903
sg12
g4903
sg14
VDT
p4904
sg16
Nsbag4
(g5
g6
Ntp4905
Rp4906
(dp4907
g10
Vname
p4908
sg12
g4908
sg14
VNN
p4909
sg16
Nsbag4
(g5
g6
Ntp4910
Rp4911
(dp4912
g10
Vof
p4913
sg12
g4913
sg14
VIN
p4914
sg16
Nsbag4
(g5
g6
Ntp4915
Rp4916
(dp4917
g10
Vthe
p4918
sg12
g4918
sg14
VDT
p4919
sg16
Nsbag4
(g5
g6
Ntp4920
Rp4921
(dp4922
g10
Vrecipient
p4923
sg12
g4923
sg14
VJJ
p4924
sg16
Nsbag4
(g5
g6
Ntp4925
Rp4926
(dp4927
g10
g2394
sg12
g2394
sg14
g2395
sg16
Nsbasg2396
S'other'
p4928
sa(dp4929
g2353
(lp4930
g4
(g5
g6
Ntp4931
Rp4932
(dp4933
g10
Vwhat
p4934
sg12
VWhat
p4935
sg14
VWP
p4936
sg16
Nsbag4
(g5
g6
Ntp4937
Rp4938
(dp4939
g10
Vearlier
p4940
sg12
g4940
sg14
VJJR
p4941
sg16
Nsbag4
(g5
g6
Ntp4942
Rp4943
(dp4944
g10
Vpublication
p4945
sg12
g4945
sg14
VNN
p4946
sg16
Nsbag4
(g5
g6
Ntp4947
Rp4948
(dp4949
g10
Vabout
p4950
sg12
g4950
sg14
VIN
p4951
sg16
Nsbag4
(g5
g6
Ntp4952
Rp4953
(dp4954
g10
Vmohammed
p4955
sg12
VMohammed
p4956
sg14
VNNP
p4957
sg16
Nsbag4
(g5
g6
Ntp4958
Rp4959
(dp4960
g10
Vcreate
p4961
sg12
Vcreated
p4962
sg14
VVBD
p4963
sg16
Nsbag4
(g5
g6
Ntp4964
Rp4965
(dp4966
g10
Vprotest
p4967
sg12
Vprotests
p4968
sg14
VNNS
p4969
sg16
Nsbag4
(g5
g6
Ntp4970
Rp4971
(dp4972
g10
Vand
p4973
sg12
g4973
sg14
VCC
p4974
sg16
Nsbag4
(g5
g6
Ntp4975
Rp4976
(dp4977
g10
Vdeath
p4978
sg12
g4978
sg14
VNN
p4979
sg16
Nsbag4
(g5
g6
Ntp4980
Rp4981
(dp4982
g10
Vthreat
p4983
sg12
Vthreats
p4984
sg14
VNNS
p4985
sg16
Nsbag4
(g5
g6
Ntp4986
Rp4987
(dp4988
g10
g2394
sg12
g2394
sg14
g2395
sg16
Nsbasg2396
S'other'
p4989
sa(dp4990
g2353
(lp4991
g4
(g5
g6
Ntp4992
Rp4993
(dp4994
g10
Vwhat
p4995
sg12
VWhat
p4996
sg14
VWP
p4997
sg16
Nsbag4
(g5
g6
Ntp4998
Rp4999
(dp5000
g10
Vbe
p5001
sg12
Vis
p5002
sg14
VVBZ
p5003
sg16
Nsbag4
(g5
g6
Ntp5004
Rp5005
(dp5006
g10
Vthe
p5007
sg12
g5007
sg14
VDT
p5008
sg16
Nsbag4
(g5
g6
Ntp5009
Rp5010
(dp5011
g10
Vgenus
p5012
sg12
g5012
sg14
VNN
p5013
sg16
Nsbag4
(g5
g6
Ntp5014
Rp5015
(dp5016
g10
Vof
p5017
sg12
g5017
sg14
VIN
p5018
sg16
Nsbag4
(g5
g6
Ntp5019
Rp5020
(dp5021
g10
Vkumquat
p5022
sg12
g5022
sg14
VNN
p5023
sg16
Nsbag4
(g5
g6
Ntp5024
Rp5025
(dp5026
g10
g2394
sg12
g2394
sg14
g2395
sg16
Nsbasg2396
S'whatis'
p5027
sa(dp5028
g2353
(lp5029
g4
(g5
g6
Ntp5030
Rp5031
(dp5032
g10
Vwhat
p5033
sg12
VWhat
p5034
sg14
VWP
p5035
sg16
Nsbag4
(g5
g6
Ntp5036
Rp5037
(dp5038
g10
Vposition
p5039
sg12
Vpositions
p5040
sg14
VNNS
p5041
sg16
Nsbag4
(g5
g6
Ntp5042
Rp5043
(dp5044
g10
Vdo
p5045
sg12
Vdid
p5046
sg14
VVBD
p5047
sg16
Nsbag4
(g5
g6
Ntp5048
Rp5049
(dp5050
g10
Vmichael
p5051
sg12
VMichael
p5052
sg14
VNNP
p5053
sg16
Nsbag4
(g5
g6
Ntp5054
Rp5055
(dp5056
g10
Vbrown
p5057
sg12
VBrown
p5058
sg14
VNNP
p5059
sg16
Nsbag4
(g5
g6
Ntp5060
Rp5061
(dp5062
g10
Vhold
p5063
sg12
g5063
sg14
VVBD
p5064
sg16
Nsbag4
(g5
g6
Ntp5065
Rp5066
(dp5067
g10
Vbefore
p5068
sg12
g5068
sg14
VIN
p5069
sg16
Nsbag4
(g5
g6
Ntp5070
Rp5071
(dp5072
g10
Vbecoming
p5073
sg12
g5073
sg14
VNN
p5074
sg16
Nsbag4
(g5
g6
Ntp5075
Rp5076
(dp5077
g10
Vhead
p5078
sg12
g5078
sg14
VNN
p5079
sg16
Nsbag4
(g5
g6
Ntp5080
Rp5081
(dp5082
g10
Vof
p5083
sg12
g5083
sg14
VIN
p5084
sg16
Nsbag4
(g5
g6
Ntp5085
Rp5086
(dp5087
g10
Vfema
p5088
sg12
VFEMA
p5089
sg14
VNNP
p5090
sg16
Nsbag4
(g5
g6
Ntp5091
Rp5092
(dp5093
g10
g2394
sg12
g2394
sg14
g2395
sg16
Nsbasg2396
S'other'
p5094
sa(dp5095
g2353
(lp5096
g4
(g5
g6
Ntp5097
Rp5098
(dp5099
g10
Vwhat
p5100
sg12
VWhat
p5101
sg14
VWP
p5102
sg16
Nsbag4
(g5
g6
Ntp5103
Rp5104
(dp5105
g10
Vbe
p5106
sg12
Vare
p5107
sg14
VVBP
p5108
sg16
Nsbag4
(g5
g6
Ntp5109
Rp5110
(dp5111
g10
Vthe
p5112
sg12
g5112
sg14
VDT
p5113
sg16
Nsbag4
(g5
g6
Ntp5114
Rp5115
(dp5116
g10
Vdifferent
p5117
sg12
g5117
sg14
VJJ
p5118
sg16
Nsbag4
(g5
g6
Ntp5119
Rp5120
(dp5121
g10
Vtype
p5122
sg12
Vtypes
p5123
sg14
VNNS
p5124
sg16
Nsbag4
(g5
g6
Ntp5125
Rp5126
(dp5127
g10
Vof
p5128
sg12
g5128
sg14
VIN
p5129
sg16
Nsbag4
(g5
g6
Ntp5130
Rp5131
(dp5132
g10
Vquark
p5133
sg12
Vquarks
p5134
sg14
VNNS
p5135
sg16
Nsbag4
(g5
g6
Ntp5136
Rp5137
(dp5138
g10
g2394
sg12
g2394
sg14
g2395
sg16
Nsbasg2396
S'other'
p5139
sa(dp5140
g2353
(lp5141
g4
(g5
g6
Ntp5142
Rp5143
(dp5144
g10
Vin
p5145
sg12
VIn
p5146
sg14
VIN
p5147
sg16
Nsbag4
(g5
g6
Ntp5148
Rp5149
(dp5150
g10
Vwhat
p5151
sg12
g5151
sg14
VWP
p5152
sg16
Nsbag4
(g5
g6
Ntp5153
Rp5154
(dp5155
g10
Vcountry
p5156
sg12
Vcountries
p5157
sg14
VNNS
p5158
sg16
Nsbag4
(g5
g6
Ntp5159
Rp5160
(dp5161
g10
Vbe
p5162
sg12
Vare
p5163
sg14
VVBP
p5164
sg16
Nsbag4
(g5
g6
Ntp5165
Rp5166
(dp5167
g10
Vagouti
p5168
sg12
g5168
sg14
VRB
p5169
sg16
Nsbag4
(g5
g6
Ntp5170
Rp5171
(dp5172
g10
g2427
sg12
g2427
sg14
V''
p5173
sg16
Nsbag4
(g5
g6
Ntp5174
Rp5175
(dp5176
g10
g2432
sg12
g2432
sg14
VNNS
p5177
sg16
Nsbag4
(g5
g6
Ntp5178
Rp5179
(dp5180
g10
Vfound
p5181
sg12
g5181
sg14
VVBD
p5182
sg16
Nsbag4
(g5
g6
Ntp5183
Rp5184
(dp5185
g10
g2394
sg12
g2394
sg14
g2395
sg16
Nsbasg2396
S'other'
p5186
sa(dp5187
g2353
(lp5188
g4
(g5
g6
Ntp5189
Rp5190
(dp5191
g10
Vwhen
p5192
sg12
VWhen
p5193
sg14
VWRB
p5194
sg16
Nsbag4
(g5
g6
Ntp5195
Rp5196
(dp5197
g10
Vbe
p5198
sg12
Vwas
p5199
sg14
VVBD
p5200
sg16
Nsbag4
(g5
g6
Ntp5201
Rp5202
(dp5203
g10
Vbon
p5204
sg12
VBon
p5205
sg14
VNNP
p5206
sg16
Nsbag4
(g5
g6
Ntp5207
Rp5208
(dp5209
g10
Vjovi
p5210
sg12
VJovi
p5211
sg14
VNNP
p5212
sg16
Nsbag4
(g5
g6
Ntp5213
Rp5214
(dp5215
g10
Vborn
p5216
sg12
g5216
sg14
VNN
p5217
sg16
Nsbag4
(g5
g6
Ntp5218
Rp5219
(dp5220
g10
g2394
sg12
g2394
sg14
g2395
sg16
Nsbasg2396
S'howoldis'
p5221
sa(dp5222
g2353
(lp5223
g4
(g5
g6
Ntp5224
Rp5225
(dp5226
g10
Vwho
p5227
sg12
VWho
p5228
sg14
VWP
p5229
sg16
Nsbag4
(g5
g6
Ntp5230
Rp5231
(dp5232
g10
Vfound
p5233
sg12
Vfounded
p5234
sg14
VVBN
p5235
sg16
Nsbag4
(g5
g6
Ntp5236
Rp5237
(dp5238
g10
Vthe
p5239
sg12
g5239
sg14
VDT
p5240
sg16
Nsbag4
(g5
g6
Ntp5241
Rp5242
(dp5243
g10
Vhouse
p5244
sg12
VHouse
p5245
sg14
VNNP
p5246
sg16
Nsbag4
(g5
g6
Ntp5247
Rp5248
(dp5249
g10
Vof
p5250
sg12
g5250
sg14
VIN
p5251
sg16
Nsbag4
(g5
g6
Ntp5252
Rp5253
(dp5254
g10
Vchanel
p5255
sg12
VChanel
p5256
sg14
VNNP
p5257
sg16
Nsbag4
(g5
g6
Ntp5258
Rp5259
(dp5260
g10
g2394
sg12
g2394
sg14
g2395
sg16
Nsbasg2396
S'other'
p5261
sa(dp5262
g2353
(lp5263
g4
(g5
g6
Ntp5264
Rp5265
(dp5266
g10
Vin
p5267
sg12
VIn
p5268
sg14
VIN
p5269
sg16
Nsbag4
(g5
g6
Ntp5270
Rp5271
(dp5272
g10
Vwhat
p5273
sg12
g5273
sg14
VWP
p5274
sg16
Nsbag4
(g5
g6
Ntp5275
Rp5276
(dp5277
g10
Vyear
p5278
sg12
g5278
sg14
VNN
p5279
sg16
Nsbag4
(g5
g6
Ntp5280
Rp5281
(dp5282
g10
Vbe
p5283
sg12
Vwere
p5284
sg14
VVBD
p5285
sg16
Nsbag4
(g5
g6
Ntp5286
Rp5287
(dp5288
g10
Vthe
p5289
sg12
g5289
sg14
VDT
p5290
sg16
Nsbag4
(g5
g6
Ntp5291
Rp5292
(dp5293
g10
Vbuffalo
p5294
sg12
VBuffalo
p5295
sg14
VNNP
p5296
sg16
Nsbag4
(g5
g6
Ntp5297
Rp5298
(dp5299
g10
Vsoldier
p5300
sg12
VSoldier
p5301
sg14
VNNP
p5302
sg16
Nsbag4
(g5
g6
Ntp5303
Rp5304
(dp5305
g10
Vregiment
p5306
sg12
Vregiments
p5307
sg14
VNNS
p5308
sg16
Nsbag4
(g5
g6
Ntp5309
Rp5310
(dp5311
g10
Vmerge
p5312
sg12
Vmerged
p5313
sg14
VVBD
p5314
sg16
Nsbag4
(g5
g6
Ntp5315
Rp5316
(dp5317
g10
Vwith
p5318
sg12
g5318
sg14
VIN
p5319
sg16
Nsbag4
(g5
g6
Ntp5320
Rp5321
(dp5322
g10
Vthe
p5323
sg12
g5323
sg14
VDT
p5324
sg16
Nsbag4
(g5
g6
Ntp5325
Rp5326
(dp5327
g10
Vintegrated
p5328
sg12
g5328
sg14
VJJ
p5329
sg16
Nsbag4
(g5
g6
Ntp5330
Rp5331
(dp5332
g10
Varmy
p5333
sg12
g5333
sg14
VNN
p5334
sg16
Nsbag4
(g5
g6
Ntp5335
Rp5336
(dp5337
g10
g2394
sg12
g2394
sg14
g2395
sg16
Nsbasg2396
S'other'
p5338
sa(dp5339
g2353
(lp5340
g4
(g5
g6
Ntp5341
Rp5342
(dp5343
g10
Vwho
p5344
sg12
VWho
p5345
sg14
VWP
p5346
sg16
Nsbag4
(g5
g6
Ntp5347
Rp5348
(dp5349
g10
Vbe
p5350
sg12
Vis
p5351
sg14
VVBZ
p5352
sg16
Nsbag4
(g5
g6
Ntp5353
Rp5354
(dp5355
g10
Vthe
p5356
sg12
g5356
sg14
VDT
p5357
sg16
Nsbag4
(g5
g6
Ntp5358
Rp5359
(dp5360
g10
Vmayor
p5361
sg12
g5361
sg14
VNN
p5362
sg16
Nsbag4
(g5
g6
Ntp5363
Rp5364
(dp5365
g10
Vof
p5366
sg12
g5366
sg14
VIN
p5367
sg16
Nsbag4
(g5
g6
Ntp5368
Rp5369
(dp5370
g10
Vmarbella
p5371
sg12
VMarbella
p5372
sg14
VNNP
p5373
sg16
Nsbasg2396
S'other'
p5374
sa(dp5375
g2353
(lp5376
g4
(g5
g6
Ntp5377
Rp5378
(dp5379
g10
Vwhat
p5380
sg12
VWhat
p5381
sg14
VWP
p5382
sg16
Nsbag4
(g5
g6
Ntp5383
Rp5384
(dp5385
g10
Vcountry
p5386
sg12
g5386
sg14
VNN
p5387
sg16
Nsbag4
(g5
g6
Ntp5388
Rp5389
(dp5390
g10
Vdo
p5391
sg12
Vdid
p5392
sg14
VVBD
p5393
sg16
Nsbag4
(g5
g6
Ntp5394
Rp5395
(dp5396
g10
Vthe
p5397
sg12
g5397
sg14
VDT
p5398
sg16
Nsbag4
(g5
g6
Ntp5399
Rp5400
(dp5401
g10
Vun
p5402
sg12
VUN
p5403
sg14
VNNP
p5404
sg16
Nsbag4
(g5
g6
Ntp5405
Rp5406
(dp5407
g10
Vinvestigator
p5408
sg12
g5408
sg14
VNN
p5409
sg16
Nsbag4
(g5
g6
Ntp5410
Rp5411
(dp5412
g10
V,
p5413
sg12
g5413
sg14
g5413
sg16
Nsbag4
(g5
g6
Ntp5414
Rp5415
(dp5416
g10
Vdetlev
p5417
sg12
VDetlev
p5418
sg14
VNNP
p5419
sg16
Nsbag4
(g5
g6
Ntp5420
Rp5421
(dp5422
g10
Vmehlis
p5423
sg12
VMehlis
p5424
sg14
VNNP
p5425
sg16
Nsbag4
(g5
g6
Ntp5426
Rp5427
(dp5428
g10
g5413
sg12
g5413
sg14
g5413
sg16
Nsbag4
(g5
g6
Ntp5429
Rp5430
(dp5431
g10
Vaccuse
p5432
sg12
g5432
sg14
VNN
p5433
sg16
Nsbag4
(g5
g6
Ntp5434
Rp5435
(dp5436
g10
Vof
p5437
sg12
g5437
sg14
VIN
p5438
sg16
Nsbag4
(g5
g6
Ntp5439
Rp5440
(dp5441
g10
Vresponsibility
p5442
sg12
g5442
sg14
VNN
p5443
sg16
Nsbag4
(g5
g6
Ntp5444
Rp5445
(dp5446
g10
Vfor
p5447
sg12
g5447
sg14
VIN
p5448
sg16
Nsbasg2396
S'other'
p5449
sa(dp5450
g2353
(lp5451
g4
(g5
g6
Ntp5452
Rp5453
(dp5454
g10
Vwho
p5455
sg12
VWho
p5456
sg14
VWP
p5457
sg16
Nsbag4
(g5
g6
Ntp5458
Rp5459
(dp5460
g10
Vbe
p5461
sg12
Vare
p5462
sg14
VVBP
p5463
sg16
Nsbag4
(g5
g6
Ntp5464
Rp5465
(dp5466
g10
Vnirvana
p5467
sg12
VNirvana
p5468
sg14
VNNP
p5469
sg16
Nsbag4
(g5
g6
Ntp5470
Rp5471
(dp5472
g10
g2427
sg12
g2427
sg14
VPOS
p5473
sg16
Nsbag4
(g5
g6
Ntp5474
Rp5475
(dp5476
g10
g2432
sg12
g2432
sg14
VNNS
p5477
sg16
Nsbag4
(g5
g6
Ntp5478
Rp5479
(dp5480
g10
Vband
p5481
sg12
g5481
sg14
VVBP
p5482
sg16
Nsbag4
(g5
g6
Ntp5483
Rp5484
(dp5485
g10
Vmember
p5486
sg12
Vmembers
p5487
sg14
VNNS
p5488
sg16
Nsbag4
(g5
g6
Ntp5489
Rp5490
(dp5491
g10
g2394
sg12
g2394
sg14
g2395
sg16
Nsbasg2396
S'bandmembers'
p5492
sa(dp5493
g2353
(lp5494
g4
(g5
g6
Ntp5495
Rp5496
(dp5497
g10
Vwho
p5498
sg12
VWho
p5499
sg14
VWP
p5500
sg16
Nsbag4
(g5
g6
Ntp5501
Rp5502
(dp5503
g10
Vbe
p5504
sg12
Vwere
p5505
sg14
VVBD
p5506
sg16
Nsbag4
(g5
g6
Ntp5507
Rp5508
(dp5509
g10
Vvictim
p5510
sg12
Vvictims
p5511
sg14
VNNS
p5512
sg16
Nsbag4
(g5
g6
Ntp5513
Rp5514
(dp5515
g10
Vof
p5516
sg12
g5516
sg14
VIN
p5517
sg16
Nsbag4
(g5
g6
Ntp5518
Rp5519
(dp5520
g10
Vthe
p5521
sg12
g5521
sg14
VDT
p5522
sg16
Nsbag4
(g5
g6
Ntp5523
Rp5524
(dp5525
g10
Vdisaster
p5526
sg12
g5526
sg14
VNN
p5527
sg16
Nsbag4
(g5
g6
Ntp5528
Rp5529
(dp5530
g10
g2394
sg12
g2394
sg14
g2395
sg16
Nsbasg2396
S'other'
p5531
sa(dp5532
g2353
(lp5533
g4
(g5
g6
Ntp5534
Rp5535
(dp5536
g10
Vwhat
p5537
sg12
VWhat
p5538
sg14
VWP
p5539
sg16
Nsbag4
(g5
g6
Ntp5540
Rp5541
(dp5542
g10
Vpercentage
p5543
sg12
g5543
sg14
VNN
p5544
sg16
Nsbag4
(g5
g6
Ntp5545
Rp5546
(dp5547
g10
Vof
p5548
sg12
g5548
sg14
VIN
p5549
sg16
Nsbag4
(g5
g6
Ntp5550
Rp5551
(dp5552
g10
Vthe
p5553
sg12
g5553
sg14
VDT
p5554
sg16
Nsbag4
(g5
g6
Ntp5555
Rp5556
(dp5557
g10
Vvote
p5558
sg12
Vvotes
p5559
sg14
VNNS
p5560
sg16
Nsbag4
(g5
g6
Ntp5561
Rp5562
(dp5563
g10
Vdo
p5564
sg12
Vdid
p5565
sg14
VVBD
p5566
sg16
Nsbag4
(g5
g6
Ntp5567
Rp5568
(dp5569
g10
Vthe
p5570
sg12
g5570
sg14
VDT
p5571
sg16
Nsbag4
(g5
g6
Ntp5572
Rp5573
(dp5574
g10
Vwinner
p5575
sg12
g5575
sg14
VNN
p5576
sg16
Nsbag4
(g5
g6
Ntp5577
Rp5578
(dp5579
g10
Vreceive
p5580
sg12
g5580
sg14
VNN
p5581
sg16
Nsbag4
(g5
g6
Ntp5582
Rp5583
(dp5584
g10
g2394
sg12
g2394
sg14
g2395
sg16
Nsbasg2396
S'other'
p5585
sa(dp5586
g2353
(lp5587
g4
(g5
g6
Ntp5588
Rp5589
(dp5590
g10
Vwhere
p5591
sg12
VWhere
p5592
sg14
VWRB
p5593
sg16
Nsbag4
(g5
g6
Ntp5594
Rp5595
(dp5596
g10
Vdo
p5597
sg12
Vdid
p5598
sg14
VVBD
p5599
sg16
Nsbag4
(g5
g6
Ntp5600
Rp5601
(dp5602
g10
Vhe
p5603
sg12
g5603
sg14
VPRP
p5604
sg16
Nsbag4
(g5
g6
Ntp5605
Rp5606
(dp5607
g10
Vgrow
p5608
sg12
g5608
sg14
VNN
p5609
sg16
Nsbag4
(g5
g6
Ntp5610
Rp5611
(dp5612
g10
Vup
p5613
sg12
g5613
sg14
VRP
p5614
sg16
Nsbag4
(g5
g6
Ntp5615
Rp5616
(dp5617
g10
g2394
sg12
g2394
sg14
g2395
sg16
Nsbasg2396
S'other'
p5618
sa(dp5619
g2353
(lp5620
g4
(g5
g6
Ntp5621
Rp5622
(dp5623
g10
Vin
p5624
sg12
VIn
p5625
sg14
VIN
p5626
sg16
Nsbag4
(g5
g6
Ntp5627
Rp5628
(dp5629
g10
Vwhat
p5630
sg12
g5630
sg14
VWP
p5631
sg16
Nsbag4
(g5
g6
Ntp5632
Rp5633
(dp5634
g10
Vstate
p5635
sg12
Vstates
p5636
sg14
VNNS
p5637
sg16
Nsbag4
(g5
g6
Ntp5638
Rp5639
(dp5640
g10
Vbe
p5641
sg12
Vis
p5642
sg14
VVBZ
p5643
sg16
Nsbag4
(g5
g6
Ntp5644
Rp5645
(dp5646
g10
Vlyme
p5647
sg12
VLyme
p5648
sg14
VNNP
p5649
sg16
Nsbag4
(g5
g6
Ntp5650
Rp5651
(dp5652
g10
Vdisease
p5653
sg12
g5653
sg14
VNN
p5654
sg16
Nsbag4
(g5
g6
Ntp5655
Rp5656
(dp5657
g10
g3560
sg12
g3560
sg14
VDT
p5658
sg16
Nsbag4
(g5
g6
Ntp5659
Rp5660
(dp5661
g10
Vproblem
p5662
sg12
g5662
sg14
VNN
p5663
sg16
Nsbag4
(g5
g6
Ntp5664
Rp5665
(dp5666
g10
g2394
sg12
g2394
sg14
g2395
sg16
Nsbasg2396
S'other'
p5667
sa(dp5668
g2353
(lp5669
g4
(g5
g6
Ntp5670
Rp5671
(dp5672
g10
Vwhat
p5673
sg12
VWhat
p5674
sg14
VWP
p5675
sg16
Nsbag4
(g5
g6
Ntp5676
Rp5677
(dp5678
g10
Vyear
p5679
sg12
g5679
sg14
VNN
p5680
sg16
Nsbag4
(g5
g6
Ntp5681
Rp5682
(dp5683
g10
Vbe
p5684
sg12
Vwas
p5685
sg14
VVBD
p5686
sg16
Nsbag4
(g5
g6
Ntp5687
Rp5688
(dp5689
g10
Vthe
p5690
sg12
g5690
sg14
VDT
p5691
sg16
Nsbag4
(g5
g6
Ntp5692
Rp5693
(dp5694
g10
Vmint
p5695
sg12
VMint
p5696
sg14
VNNP
p5697
sg16
Nsbag4
(g5
g6
Ntp5698
Rp5699
(dp5700
g10
Vestablish
p5701
sg12
Vestablished
p5702
sg14
VVBD
p5703
sg16
Nsbag4
(g5
g6
Ntp5704
Rp5705
(dp5706
g10
g2394
sg12
g2394
sg14
g2395
sg16
Nsbasg2396
S'other'
p5707
sa(dp5708
g2353
(lp5709
g4
(g5
g6
Ntp5710
Rp5711
(dp5712
g10
Vwhat
p5713
sg12
VWhat
p5714
sg14
VWP
p5715
sg16
Nsbag4
(g5
g6
Ntp5716
Rp5717
(dp5718
g10
Vbrand
p5719
sg12
g5719
sg14
VNN
p5720
sg16
Nsbag4
(g5
g6
Ntp5721
Rp5722
(dp5723
g10
Vof
p5724
sg12
g5724
sg14
VIN
p5725
sg16
Nsbag4
(g5
g6
Ntp5726
Rp5727
(dp5728
g10
Vwhite
p5729
sg12
g5729
sg14
VJJ
p5730
sg16
Nsbag4
(g5
g6
Ntp5731
Rp5732
(dp5733
g10
Vrum
p5734
sg12
g5734
sg14
VNN
p5735
sg16
Nsbag4
(g5
g6
Ntp5736
Rp5737
(dp5738
g10
Vbe
p5739
sg12
Vis
p5740
sg14
VVBZ
p5741
sg16
Nsbag4
(g5
g6
Ntp5742
Rp5743
(dp5744
g10
Vstill
p5745
sg12
g5745
sg14
VRB
p5746
sg16
Nsbag4
(g5
g6
Ntp5747
Rp5748
(dp5749
g10
Vmake
p5750
sg12
Vmade
p5751
sg14
VVBN
p5752
sg16
Nsbag4
(g5
g6
Ntp5753
Rp5754
(dp5755
g10
Vin
p5756
sg12
g5756
sg14
VIN
p5757
sg16
Nsbag4
(g5
g6
Ntp5758
Rp5759
(dp5760
g10
Vcuba
p5761
sg12
VCuba
p5762
sg14
VNNP
p5763
sg16
Nsbasg2396
S'other'
p5764
sa(dp5765
g2353
(lp5766
g4
(g5
g6
Ntp5767
Rp5768
(dp5769
g10
Von
p5770
sg12
VOn
p5771
sg14
VIN
p5772
sg16
Nsbag4
(g5
g6
Ntp5773
Rp5774
(dp5775
g10
Vwhat
p5776
sg12
g5776
sg14
VWP
p5777
sg16
Nsbag4
(g5
g6
Ntp5778
Rp5779
(dp5780
g10
Vdate
p5781
sg12
g5781
sg14
VNN
p5782
sg16
Nsbag4
(g5
g6
Ntp5783
Rp5784
(dp5785
g10
Vdo
p5786
sg12
Vdid
p5787
sg14
VVBD
p5788
sg16
Nsbag4
(g5
g6
Ntp5789
Rp5790
(dp5791
g10
Vshe
p5792
sg12
g5792
sg14
VPRP
p5793
sg16
Nsbag4
(g5
g6
Ntp5794
Rp5795
(dp5796
g10
Vwithdraw
p5797
sg12
g5797
sg14
VVBD
p5798
sg16
Nsbag4
(g5
g6
Ntp5799
Rp5800
(dp5801
g10
Vher
p5802
sg12
g5802
sg14
VPRP$
p5803
sg16
Nsbag4
(g5
g6
Ntp5804
Rp5805
(dp5806
g10
Vnomination
p5807
sg12
g5807
sg14
VNN
p5808
sg16
Nsbag4
(g5
g6
Ntp5809
Rp5810
(dp5811
g10
g2394
sg12
g2394
sg14
g2395
sg16
Nsbasg2396
S'other'
p5812
sa(dp5813
g2353
(lp5814
g4
(g5
g6
Ntp5815
Rp5816
(dp5817
g10
Vwhat
p5818
sg12
VWhat
p5819
sg14
VWP
p5820
sg16
Nsbag4
(g5
g6
Ntp5821
Rp5822
(dp5823
g10
Vaward
p5824
sg12
Vawards
p5825
sg14
VNNS
p5826
sg16
Nsbag4
(g5
g6
Ntp5827
Rp5828
(dp5829
g10
Vhave
p5830
sg12
Vhas
p5831
sg14
VVBZ
p5832
sg16
Nsbag4
(g5
g6
Ntp5833
Rp5834
(dp5835
g10
Vpamuk
p5836
sg12
VPamuk
p5837
sg14
VNNP
p5838
sg16
Nsbag4
(g5
g6
Ntp5839
Rp5840
(dp5841
g10
Vwin
p5842
sg12
Vwon
p5843
sg14
VVBD
p5844
sg16
Nsbag4
(g5
g6
Ntp5845
Rp5846
(dp5847
g10
g2394
sg12
g2394
sg14
g2395
sg16
Nsbasg2396
S'other'
p5848
sa(dp5849
g2353
(lp5850
g4
(g5
g6
Ntp5851
Rp5852
(dp5853
g10
Vwhat
p5854
sg12
VWhat
p5855
sg14
VWP
p5856
sg16
Nsbag4
(g5
g6
Ntp5857
Rp5858
(dp5859
g10
Vother
p5860
sg12
g5860
sg14
VJJ
p5861
sg16
Nsbag4
(g5
g6
Ntp5862
Rp5863
(dp5864
g10
Vposition
p5865
sg12
Vpositions
p5866
sg14
VNNS
p5867
sg16
Nsbag4
(g5
g6
Ntp5868
Rp5869
(dp5870
g10
Vhave
p5871
sg12
Vhas
p5872
sg14
VVBZ
p5873
sg16
Nsbag4
(g5
g6
Ntp5874
Rp5875
(dp5876
g10
Vhe
p5877
sg12
g5877
sg14
VPRP
p5878
sg16
Nsbag4
(g5
g6
Ntp5879
Rp5880
(dp5881
g10
Vhold
p5882
sg12
Vheld
p5883
sg14
VVBD
p5884
sg16
Nsbag4
(g5
g6
Ntp5885
Rp5886
(dp5887
g10
Vin
p5888
sg12
g5888
sg14
VIN
p5889
sg16
Nsbag4
(g5
g6
Ntp5890
Rp5891
(dp5892
g10
Vgovernment
p5893
sg12
g5893
sg14
VNN
p5894
sg16
Nsbag4
(g5
g6
Ntp5895
Rp5896
(dp5897
g10
g2394
sg12
g2394
sg14
g2395
sg16
Nsbasg2396
S'other'
p5898
sa(dp5899
g2353
(lp5900
g4
(g5
g6
Ntp5901
Rp5902
(dp5903
g10
Vwho
p5904
sg12
VWho
p5905
sg14
VWP
p5906
sg16
Nsbag4
(g5
g6
Ntp5907
Rp5908
(dp5909
g10
Vmany
p5910
sg12
g5910
sg14
VJJ
p5911
sg16
Nsbag4
(g5
g6
Ntp5912
Rp5913
(dp5914
g10
Vpeople
p5915
sg12
g5915
sg14
VNNS
p5916
sg16
Nsbag4
(g5
g6
Ntp5917
Rp5918
(dp5919
g10
Vbe
p5920
sg12
Vwere
p5921
sg14
VVBD
p5922
sg16
Nsbag4
(g5
g6
Ntp5923
Rp5924
(dp5925
g10
Vkill
p5926
sg12
Vkilled
p5927
sg14
VVBN
p5928
sg16
Nsbag4
(g5
g6
Ntp5929
Rp5930
(dp5931
g10
Vin
p5932
sg12
g5932
sg14
VIN
p5933
sg16
Nsbag4
(g5
g6
Ntp5934
Rp5935
(dp5936
g10
Vtotal
p5937
sg12
g5937
sg14
VJJ
p5938
sg16
Nsbag4
(g5
g6
Ntp5939
Rp5940
(dp5941
g10
Vin
p5942
sg12
g5942
sg14
VIN
p5943
sg16
Nsbag4
(g5
g6
Ntp5944
Rp5945
(dp5946
g10
Vthe
p5947
sg12
g5947
sg14
VDT
p5948
sg16
Nsbag4
(g5
g6
Ntp5949
Rp5950
(dp5951
g10
Vattack
p5952
sg12
Vattacks
p5953
sg14
VNNS
p5954
sg16
Nsbag4
(g5
g6
Ntp5955
Rp5956
(dp5957
g10
g2394
sg12
g2394
sg14
g2395
sg16
Nsbasg2396
S'other'
p5958
sa(dp5959
g2353
(lp5960
g4
(g5
g6
Ntp5961
Rp5962
(dp5963
g10
Vwhat
p5964
sg12
VWhat
p5965
sg14
VWP
p5966
sg16
Nsbag4
(g5
g6
Ntp5967
Rp5968
(dp5969
g10
Vcountry
p5970
sg12
g5970
sg14
VNN
p5971
sg16
Nsbag4
(g5
g6
Ntp5972
Rp5973
(dp5974
g10
Vother
p5975
sg12
g5975
sg14
VJJ
p5976
sg16
Nsbag4
(g5
g6
Ntp5977
Rp5978
(dp5979
g10
Vthan
p5980
sg12
g5980
sg14
VIN
p5981
sg16
Nsbag4
(g5
g6
Ntp5982
Rp5983
(dp5984
g10
Vlebanon
p5985
sg12
VLebanon
p5986
sg14
VNNP
p5987
sg16
Nsbag4
(g5
g6
Ntp5988
Rp5989
(dp5990
g10
Vdo
p5991
sg12
Vdid
p5992
sg14
VVBD
p5993
sg16
Nsbag4
(g5
g6
Ntp5994
Rp5995
(dp5996
g10
Vhe
p5997
sg12
g5997
sg14
VPRP
p5998
sg16
Nsbag4
(g5
g6
Ntp5999
Rp6000
(dp6001
g10
Vhold
p6002
sg12
g6002
sg14
VVBD
p6003
sg16
Nsbag4
(g5
g6
Ntp6004
Rp6005
(dp6006
g10
Vcitizenship
p6007
sg12
g6007
sg14
VNN
p6008
sg16
Nsbag4
(g5
g6
Ntp6009
Rp6010
(dp6011
g10
g2394
sg12
g2394
sg14
g2395
sg16
Nsbasg2396
S'other'
p6012
sa(dp6013
g2353
(lp6014
g4
(g5
g6
Ntp6015
Rp6016
(dp6017
g10
Vwho
p6018
sg12
VWho
p6019
sg14
VWP
p6020
sg16
Nsbag4
(g5
g6
Ntp6021
Rp6022
(dp6023
g10
Vbe
p6024
sg12
Vis
p6025
sg14
VVBZ
p6026
sg16
Nsbag4
(g5
g6
Ntp6027
Rp6028
(dp6029
g10
Vthe
p6030
sg12
g6030
sg14
VDT
p6031
sg16
Nsbag4
(g5
g6
Ntp6032
Rp6033
(dp6034
g10
Vchairman
p6035
sg12
g6035
sg14
VNN
p6036
sg16
Nsbag4
(g5
g6
Ntp6037
Rp6038
(dp6039
g10
Vof
p6040
sg12
g6040
sg14
VIN
p6041
sg16
Nsbag4
(g5
g6
Ntp6042
Rp6043
(dp6044
g10
Vwwe
p6045
sg12
VWWE
p6046
sg14
VNNP
p6047
sg16
Nsbag4
(g5
g6
Ntp6048
Rp6049
(dp6050
g10
g2394
sg12
g2394
sg14
g2395
sg16
Nsbasg2396
S'other'
p6051
sa(dp6052
g2353
(lp6053
g4
(g5
g6
Ntp6054
Rp6055
(dp6056
g10
Vwhat
p6057
sg12
VWhat
p6058
sg14
VWP
p6059
sg16
Nsbag4
(g5
g6
Ntp6060
Rp6061
(dp6062
g10
Vbuilding
p6063
sg12
Vbuildings
p6064
sg14
VNNS
p6065
sg16
Nsbag4
(g5
g6
Ntp6066
Rp6067
(dp6068
g10
Vhave
p6069
sg12
Vhas
p6070
sg14
VVBZ
p6071
sg16
Nsbag4
(g5
g6
Ntp6072
Rp6073
(dp6074
g10
Vgehry
p6075
sg12
VGehry
p6076
sg14
VNNP
p6077
sg16
Nsbag4
(g5
g6
Ntp6078
Rp6079
(dp6080
g10
Vdesign
p6081
sg12
Vdesigned
p6082
sg14
VVBN
p6083
sg16
Nsbag4
(g5
g6
Ntp6084
Rp6085
(dp6086
g10
g2394
sg12
g2394
sg14
g2395
sg16
Nsbasg2396
S'other'
p6087
sa(dp6088
g2353
(lp6089
g4
(g5
g6
Ntp6090
Rp6091
(dp6092
g10
Vwhat
p6093
sg12
VWhat
p6094
sg14
VWP
p6095
sg16
Nsbag4
(g5
g6
Ntp6096
Rp6097
(dp6098
g10
Vbe
p6099
sg12
Vis
p6100
sg14
VVBZ
p6101
sg16
Nsbag4
(g5
g6
Ntp6102
Rp6103
(dp6104
g10
Vthe
p6105
sg12
g6105
sg14
VDT
p6106
sg16
Nsbag4
(g5
g6
Ntp6107
Rp6108
(dp6109
g10
Vlong
p6110
sg12
Vlongest
p6111
sg14
VJJS
p6112
sg16
Nsbag4
(g5
g6
Ntp6113
Rp6114
(dp6115
g10
Vriver
p6116
sg12
g6116
sg14
VNN
p6117
sg16
Nsbag4
(g5
g6
Ntp6118
Rp6119
(dp6120
g10
Vin
p6121
sg12
g6121
sg14
VIN
p6122
sg16
Nsbag4
(g5
g6
Ntp6123
Rp6124
(dp6125
g10
Vthe
p6126
sg12
g6126
sg14
VDT
p6127
sg16
Nsbag4
(g5
g6
Ntp6128
Rp6129
(dp6130
g10
Vunited
p6131
sg12
VUnited
p6132
sg14
VNNP
p6133
sg16
Nsbag4
(g5
g6
Ntp6134
Rp6135
(dp6136
g10
Vstates
p6137
sg12
VStates
p6138
sg14
VNNPS
p6139
sg16
Nsbasg2396
S'other'
p6140
sa(dp6141
g2353
(lp6142
g4
(g5
g6
Ntp6143
Rp6144
(dp6145
g10
Vin
p6146
sg12
VIn
p6147
sg14
VIN
p6148
sg16
Nsbag4
(g5
g6
Ntp6149
Rp6150
(dp6151
g10
Vwhat
p6152
sg12
g6152
sg14
VWP
p6153
sg16
Nsbag4
(g5
g6
Ntp6154
Rp6155
(dp6156
g10
Vday
p6157
sg12
g6157
sg14
VNN
p6158
sg16
Nsbag4
(g5
g6
Ntp6159
Rp6160
(dp6161
g10
Vof
p6162
sg12
g6162
sg14
VIN
p6163
sg16
Nsbag4
(g5
g6
Ntp6164
Rp6165
(dp6166
g10
Vthe
p6167
sg12
g6167
sg14
VDT
p6168
sg16
Nsbag4
(g5
g6
Ntp6169
Rp6170
(dp6171
g10
Vweek
p6172
sg12
g6172
sg14
VNN
p6173
sg16
Nsbag4
(g5
g6
Ntp6174
Rp6175
(dp6176
g10
Vdo
p6177
sg12
Vdid
p6178
sg14
VVBD
p6179
sg16
Nsbag4
(g5
g6
Ntp6180
Rp6181
(dp6182
g10
Vchristmas
p6183
sg12
VChristmas
p6184
sg14
VNNP
p6185
sg16
Nsbag4
(g5
g6
Ntp6186
Rp6187
(dp6188
g10
Vfall
p6189
sg12
g6189
sg14
VNN
p6190
sg16
Nsbag4
(g5
g6
Ntp6191
Rp6192
(dp6193
g10
Von
p6194
sg12
g6194
sg14
VIN
p6195
sg16
Nsbasg2396
S'other'
p6196
sa(dp6197
g2353
(lp6198
g4
(g5
g6
Ntp6199
Rp6200
(dp6201
g10
Vblondie
p6202
sg12
VBlondie
p6203
sg14
VNNP
p6204
sg16
Nsbag4
(g5
g6
Ntp6205
Rp6206
(dp6207
g10
Vbe
p6208
sg12
Vis
p6209
sg14
VVBZ
p6210
sg16
Nsbag4
(g5
g6
Ntp6211
Rp6212
(dp6213
g10
Vsyndicate
p6214
sg12
Vsyndicated
p6215
sg14
VVBN
p6216
sg16
Nsbag4
(g5
g6
Ntp6217
Rp6218
(dp6219
g10
Vby
p6220
sg12
g6220
sg14
VIN
p6221
sg16
Nsbag4
(g5
g6
Ntp6222
Rp6223
(dp6224
g10
Vwhat
p6225
sg12
g6225
sg14
VWP
p6226
sg16
Nsbag4
(g5
g6
Ntp6227
Rp6228
(dp6229
g10
Vorganization
p6230
sg12
g6230
sg14
VNN
p6231
sg16
Nsbag4
(g5
g6
Ntp6232
Rp6233
(dp6234
g10
g2394
sg12
g2394
sg14
g2395
sg16
Nsbasg2396
S'other'
p6235
sa(dp6236
g2353
(lp6237
g4
(g5
g6
Ntp6238
Rp6239
(dp6240
g10
Vwhat
p6241
sg12
VWhat
p6242
sg14
VWP
p6243
sg16
Nsbag4
(g5
g6
Ntp6244
Rp6245
(dp6246
g10
Vbe
p6247
sg12
Vwas
p6248
sg14
VVBD
p6249
sg16
Nsbag4
(g5
g6
Ntp6250
Rp6251
(dp6252
g10
Vthe
p6253
sg12
g6253
sg14
VDT
p6254
sg16
Nsbag4
(g5
g6
Ntp6255
Rp6256
(dp6257
g10
Vname
p6258
sg12
g6258
sg14
VNN
p6259
sg16
Nsbag4
(g5
g6
Ntp6260
Rp6261
(dp6262
g10
Vof
p6263
sg12
g6263
sg14
VIN
p6264
sg16
Nsbag4
(g5
g6
Ntp6265
Rp6266
(dp6267
g10
Vella
p6268
sg12
VElla
p6269
sg14
VNNP
p6270
sg16
Nsbag4
(g5
g6
Ntp6271
Rp6272
(dp6273
g10
Vfitzgerald
p6274
sg12
VFitzgerald
p6275
sg14
VNNP
p6276
sg16
Nsbag4
(g5
g6
Ntp6277
Rp6278
(dp6279
g10
g2427
sg12
g2427
sg14
VPOS
p6280
sg16
Nsbag4
(g5
g6
Ntp6281
Rp6282
(dp6283
g10
g2432
sg12
g2432
sg14
VNNS
p6284
sg16
Nsbag4
(g5
g6
Ntp6285
Rp6286
(dp6287
g10
Vchristmas
p6288
sg12
VChristmas
p6289
sg14
VNNP
p6290
sg16
Nsbag4
(g5
g6
Ntp6291
Rp6292
(dp6293
g10
Vrecord
p6294
sg12
g6294
sg14
VNN
p6295
sg16
Nsbag4
(g5
g6
Ntp6296
Rp6297
(dp6298
g10
Valbum
p6299
sg12
g6299
sg14
VNN
p6300
sg16
Nsbag4
(g5
g6
Ntp6301
Rp6302
(dp6303
g10
g2394
sg12
g2394
sg14
g2395
sg16
Nsbasg2396
S'other'
p6304
sa(dp6305
g2353
(lp6306
g4
(g5
g6
Ntp6307
Rp6308
(dp6309
g10
Vwhat
p6310
sg12
VWhat
p6311
sg14
VWP
p6312
sg16
Nsbag4
(g5
g6
Ntp6313
Rp6314
(dp6315
g10
Vbe
p6316
sg12
Vwas
p6317
sg14
VVBD
p6318
sg16
Nsbag4
(g5
g6
Ntp6319
Rp6320
(dp6321
g10
Vthe
p6322
sg12
g6322
sg14
VDT
p6323
sg16
Nsbag4
(g5
g6
Ntp6324
Rp6325
(dp6326
g10
Vdeadline
p6327
sg12
g6327
sg14
VNN
p6328
sg16
Nsbag4
(g5
g6
Ntp6329
Rp6330
(dp6331
g10
Vfor
p6332
sg12
g6332
sg14
VIN
p6333
sg16
Nsbag4
(g5
g6
Ntp6334
Rp6335
(dp6336
g10
Vimplementation
p6337
sg12
g6337
sg14
VNN
p6338
sg16
Nsbag4
(g5
g6
Ntp6339
Rp6340
(dp6341
g10
Vof
p6342
sg12
g6342
sg14
VIN
p6343
sg16
Nsbag4
(g5
g6
Ntp6344
Rp6345
(dp6346
g10
Vcafta
p6347
sg12
VCAFTA
p6348
sg14
VNNP
p6349
sg16
Nsbag4
(g5
g6
Ntp6350
Rp6351
(dp6352
g10
g2394
sg12
g2394
sg14
g2395
sg16
Nsbasg2396
S'other'
p6353
sa(dp6354
g2353
(lp6355
g4
(g5
g6
Ntp6356
Rp6357
(dp6358
g10
Vwhat
p6359
sg12
VWhat
p6360
sg14
VWP
p6361
sg16
Nsbag4
(g5
g6
Ntp6362
Rp6363
(dp6364
g10
Vnewspaper
p6365
sg12
g6365
sg14
VNN
p6366
sg16
Nsbag4
(g5
g6
Ntp6367
Rp6368
(dp6369
g10
Vfirst
p6370
sg12
g6370
sg14
VRB
p6371
sg16
Nsbag4
(g5
g6
Ntp6372
Rp6373
(dp6374
g10
Vpublish
p6375
sg12
Vpublished
p6376
sg14
VVBD
p6377
sg16
Nsbag4
(g5
g6
Ntp6378
Rp6379
(dp6380
g10
Vthe
p6381
sg12
g6381
sg14
VDT
p6382
sg16
Nsbag4
(g5
g6
Ntp6383
Rp6384
(dp6385
g10
Vcartoon
p6386
sg12
Vcartoons
p6387
sg14
VNNS
p6388
sg16
Nsbag4
(g5
g6
Ntp6389
Rp6390
(dp6391
g10
g2394
sg12
g2394
sg14
g2395
sg16
Nsbasg2396
S'other'
p6392
sa(dp6393
g2353
(lp6394
g4
(g5
g6
Ntp6395
Rp6396
(dp6397
g10
Vwhat
p6398
sg12
VWhat
p6399
sg14
VWP
p6400
sg16
Nsbag4
(g5
g6
Ntp6401
Rp6402
(dp6403
g10
Vcompany
p6404
sg12
g6404
sg14
VNN
p6405
sg16
Nsbag4
(g5
g6
Ntp6406
Rp6407
(dp6408
g10
Vproduce
p6409
sg12
Vproduces
p6410
sg14
VVBZ
p6411
sg16
Nsbag4
(g5
g6
Ntp6412
Rp6413
(dp6414
g10
Vhis
p6415
sg12
g6415
sg14
VPRP$
p6416
sg16
Nsbag4
(g5
g6
Ntp6417
Rp6418
(dp6419
g10
Vrecord
p6420
sg12
Vrecords
p6421
sg14
VNNS
p6422
sg16
Nsbag4
(g5
g6
Ntp6423
Rp6424
(dp6425
g10
g2394
sg12
g2394
sg14
g2395
sg16
Nsbasg2396
S'other'
p6426
sa(dp6427
g2353
(lp6428
g4
(g5
g6
Ntp6429
Rp6430
(dp6431
g10
Vwhat
p6432
sg12
VWhat
p6433
sg14
VWP
p6434
sg16
Nsbag4
(g5
g6
Ntp6435
Rp6436
(dp6437
g10
Vbe
p6438
sg12
Vis
p6439
sg14
VVBZ
p6440
sg16
Nsbag4
(g5
g6
Ntp6441
Rp6442
(dp6443
g10
Vthe
p6444
sg12
g6444
sg14
VDT
p6445
sg16
Nsbag4
(g5
g6
Ntp6446
Rp6447
(dp6448
g10
Vdiameter
p6449
sg12
g6449
sg14
VNN
p6450
sg16
Nsbag4
(g5
g6
Ntp6451
Rp6452
(dp6453
g10
Vof
p6454
sg12
g6454
sg14
VIN
p6455
sg16
Nsbag4
(g5
g6
Ntp6456
Rp6457
(dp6458
g10
g3560
sg12
g3560
sg14
VDT
p6459
sg16
Nsbag4
(g5
g6
Ntp6460
Rp6461
(dp6462
g10
Vkumquat
p6463
sg12
g6463
sg14
VJJ
p6464
sg16
Nsbag4
(g5
g6
Ntp6465
Rp6466
(dp6467
g10
g2394
sg12
g2394
sg14
g2395
sg16
Nsbasg2396
S'other'
p6468
sa(dp6469
g2353
(lp6470
g4
(g5
g6
Ntp6471
Rp6472
(dp6473
g10
Vwhat
p6474
sg12
VWhat
p6475
sg14
VWP
p6476
sg16
Nsbag4
(g5
g6
Ntp6477
Rp6478
(dp6479
g10
Vbe
p6480
sg12
Vis
p6481
sg14
VVBZ
p6482
sg16
Nsbag4
(g5
g6
Ntp6483
Rp6484
(dp6485
g10
Vthe
p6486
sg12
g6486
sg14
VDT
p6487
sg16
Nsbag4
(g5
g6
Ntp6488
Rp6489
(dp6490
g10
V3
p6491
sg12
g6491
sg14
VCD
p6492
sg16
Nsbag4
(g5
g6
Ntp6493
Rp6494
(dp6495
g10
g3006
sg12
g3006
sg14
g2371
sg16
Nsbag4
(g5
g6
Ntp6496
Rp6497
(dp6498
g10
Vcharacter
p6499
sg12
g6499
sg14
VNN
p6500
sg16
Nsbag4
(g5
g6
Ntp6501
Rp6502
(dp6503
g10
Vairport
p6504
sg12
g6504
sg14
VNN
p6505
sg16
Nsbag4
(g5
g6
Ntp6506
Rp6507
(dp6508
g10
Vcode
p6509
sg12
g6509
sg14
VNN
p6510
sg16
Nsbag4
(g5
g6
Ntp6511
Rp6512
(dp6513
g10
Vfor
p6514
sg12
g6514
sg14
VIN
p6515
sg16
Nsbag4
(g5
g6
Ntp6516
Rp6517
(dp6518
g10
Vdulles
p6519
sg12
VDulles
p6520
sg14
VNNP
p6521
sg16
Nsbag4
(g5
g6
Ntp6522
Rp6523
(dp6524
g10
g2394
sg12
g2394
sg14
g2395
sg16
Nsbasg2396
S'other'
p6525
sa(dp6526
g2353
(lp6527
g4
(g5
g6
Ntp6528
Rp6529
(dp6530
g10
Vwhere
p6531
sg12
VWhere
p6532
sg14
VWRB
p6533
sg16
Nsbag4
(g5
g6
Ntp6534
Rp6535
(dp6536
g10
Vbe
p6537
sg12
Vis
p6538
sg14
VVBZ
p6539
sg16
Nsbag4
(g5
g6
Ntp6540
Rp6541
(dp6542
g10
Vthe
p6543
sg12
g6543
sg14
VDT
p6544
sg16
Nsbag4
(g5
g6
Ntp6545
Rp6546
(dp6547
g10
Vmint
p6548
sg12
VMint
p6549
sg14
VNNP
p6550
sg16
Nsbag4
(g5
g6
Ntp6551
Rp6552
(dp6553
g10
Vheadquarter
p6554
sg12
Vheadquartered
p6555
sg14
VVBD
p6556
sg16
Nsbag4
(g5
g6
Ntp6557
Rp6558
(dp6559
g10
g2394
sg12
g2394
sg14
g2395
sg16
Nsbasg2396
S'whereis'
p6560
sa(dp6561
g2353
(lp6562
g4
(g5
g6
Ntp6563
Rp6564
(dp6565
g10
Vwhat
p6566
sg12
VWhat
p6567
sg14
VWP
p6568
sg16
Nsbag4
(g5
g6
Ntp6569
Rp6570
(dp6571
g10
Vcable
p6572
sg12
g6572
sg14
VJJ
p6573
sg16
Nsbag4
(g5
g6
Ntp6574
Rp6575
(dp6576
g10
Vnetwork
p6577
sg12
g6577
sg14
VNN
p6578
sg16
Nsbag4
(g5
g6
Ntp6579
Rp6580
(dp6581
g10
Vairs
p6582
sg12
g6582
sg14
VNNS
p6583
sg16
Nsbag4
(g5
g6
Ntp6584
Rp6585
(dp6586
g10
Vwwe
p6587
sg12
VWWE
p6588
sg14
VNNP
p6589
sg16
Nsbag4
(g5
g6
Ntp6590
Rp6591
(dp6592
g10
g2394
sg12
g2394
sg14
g2395
sg16
Nsbasg2396
S'other'
p6593
sa(dp6594
g2353
(lp6595
g4
(g5
g6
Ntp6596
Rp6597
(dp6598
g10
Vwho
p6599
sg12
VWho
p6600
sg14
VWP
p6601
sg16
Nsbag4
(g5
g6
Ntp6602
Rp6603
(dp6604
g10
Vlead
p6605
sg12
Vleads
p6606
sg14
VNNS
p6607
sg16
Nsbag4
(g5
g6
Ntp6608
Rp6609
(dp6610
g10
Vthe
p6611
sg12
g6611
sg14
VDT
p6612
sg16
Nsbag4
(g5
g6
Ntp6613
Rp6614
(dp6615
g10
Vstar
p6616
sg12
g6616
sg14
VNN
p6617
sg16
Nsbag4
(g5
g6
Ntp6618
Rp6619
(dp6620
g10
Vship
p6621
sg12
g6621
sg14
VNN
p6622
sg16
Nsbag4
(g5
g6
Ntp6623
Rp6624
(dp6625
g10
Venterprise
p6626
sg12
VEnterprise
p6627
sg14
VNNP
p6628
sg16
Nsbag4
(g5
g6
Ntp6629
Rp6630
(dp6631
g10
Vin
p6632
sg12
g6632
sg14
VIN
p6633
sg16
Nsbag4
(g5
g6
Ntp6634
Rp6635
(dp6636
g10
Vstar
p6637
sg12
VStar
p6638
sg14
VNNP
p6639
sg16
Nsbag4
(g5
g6
Ntp6640
Rp6641
(dp6642
g10
Vtrek
p6643
sg12
VTrek
p6644
sg14
VNNP
p6645
sg16
Nsbasg2396
S'other'
p6646
sa(dp6647
g2353
(lp6648
g4
(g5
g6
Ntp6649
Rp6650
(dp6651
g10
Vwho
p6652
sg12
VWho
p6653
sg14
VWP
p6654
sg16
Nsbag4
(g5
g6
Ntp6655
Rp6656
(dp6657
g10
Vbe
p6658
sg12
Vwas
p6659
sg14
VVBD
p6660
sg16
Nsbag4
(g5
g6
Ntp6661
Rp6662
(dp6663
g10
Vthe
p6664
sg12
g6664
sg14
VDT
p6665
sg16
Nsbag4
(g5
g6
Ntp6666
Rp6667
(dp6668
g10
Vcreator
p6669
sg12
g6669
sg14
VNN
p6670
sg16
Nsbag4
(g5
g6
Ntp6671
Rp6672
(dp6673
g10
Vof
p6674
sg12
g6674
sg14
VIN
p6675
sg16
Nsbag4
(g5
g6
Ntp6676
Rp6677
(dp6678
g10
Vthe
p6679
sg12
g6679
sg14
VDT
p6680
sg16
Nsbag4
(g5
g6
Ntp6681
Rp6682
(dp6683
g10
Vstrip
p6684
sg12
g6684
sg14
VNN
p6685
sg16
Nsbag4
(g5
g6
Ntp6686
Rp6687
(dp6688
g10
g2394
sg12
g2394
sg14
g2395
sg16
Nsbasg2396
S'other'
p6689
sa(dp6690
g2353
(lp6691
g4
(g5
g6
Ntp6692
Rp6693
(dp6694
g10
Vwhat
p6695
sg12
VWhat
p6696
sg14
VWP
p6697
sg16
Nsbag4
(g5
g6
Ntp6698
Rp6699
(dp6700
g10
Vpublic
p6701
sg12
g6701
sg14
VJJ
p6702
sg16
Nsbag4
(g5
g6
Ntp6703
Rp6704
(dp6705
g10
Vhealth
p6706
sg12
g6706
sg14
VNN
p6707
sg16
Nsbag4
(g5
g6
Ntp6708
Rp6709
(dp6710
g10
Vgroup
p6711
sg12
g6711
sg14
VNN
p6712
sg16
Nsbag4
(g5
g6
Ntp6713
Rp6714
(dp6715
g10
Vdo
p6716
sg12
Vdid
p6717
sg14
VVBD
p6718
sg16
Nsbag4
(g5
g6
Ntp6719
Rp6720
(dp6721
g10
Vbat
p6722
sg12
VBAT
p6723
sg14
VNNP
p6724
sg16
Nsbag4
(g5
g6
Ntp6725
Rp6726
(dp6727
g10
Vhelp
p6728
sg12
g6728
sg14
VNN
p6729
sg16
Nsbag4
(g5
g6
Ntp6730
Rp6731
(dp6732
g10
Vfund
p6733
sg12
g6733
sg14
VNN
p6734
sg16
Nsbag4
(g5
g6
Ntp6735
Rp6736
(dp6737
g10
g2394
sg12
g2394
sg14
g2395
sg16
Nsbasg2396
S'other'
p6738
sa(dp6739
g2353
(lp6740
g4
(g5
g6
Ntp6741
Rp6742
(dp6743
g10
Vwhich
p6744
sg12
VWhich
p6745
sg14
VWDT
p6746
sg16
Nsbag4
(g5
g6
Ntp6747
Rp6748
(dp6749
g10
Vcountry
p6750
sg12
g6750
sg14
VNN
p6751
sg16
Nsbag4
(g5
g6
Ntp6752
Rp6753
(dp6754
g10
Vbe
p6755
sg12
Vis
p6756
sg14
VVBZ
p6757
sg16
Nsbag4
(g5
g6
Ntp6758
Rp6759
(dp6760
g10
Vaustralia
p6761
sg12
VAustralia
p6762
sg14
VNNP
p6763
sg16
Nsbag4
(g5
g6
Ntp6764
Rp6765
(dp6766
g10
Vlarge
p6767
sg12
Vlargest
p6768
sg14
VJJS
p6769
sg16
Nsbag4
(g5
g6
Ntp6770
Rp6771
(dp6772
g10
Vexport
p6773
sg12
g6773
sg14
VNN
p6774
sg16
Nsbag4
(g5
g6
Ntp6775
Rp6776
(dp6777
g10
Vmarket
p6778
sg12
g6778
sg14
VNN
p6779
sg16
Nsbasg2396
S'other'
p6780
sa(dp6781
g2353
(lp6782
g4
(g5
g6
Ntp6783
Rp6784
(dp6785
g10
Von
p6786
sg12
VOn
p6787
sg14
VIN
p6788
sg16
Nsbag4
(g5
g6
Ntp6789
Rp6790
(dp6791
g10
Vwhich
p6792
sg12
g6792
sg14
VWDT
p6793
sg16
Nsbag4
(g5
g6
Ntp6794
Rp6795
(dp6796
g10
Vstreet
p6797
sg12
g6797
sg14
VNN
p6798
sg16
Nsbag4
(g5
g6
Ntp6799
Rp6800
(dp6801
g10
Vbe
p6802
sg12
Vis
p6803
sg14
VVBZ
p6804
sg16
Nsbag4
(g5
g6
Ntp6805
Rp6806
(dp6807
g10
Vmerrill
p6808
sg12
VMerrill
p6809
sg14
VNNP
p6810
sg16
Nsbag4
(g5
g6
Ntp6811
Rp6812
(dp6813
g10
Vlynch
p6814
sg12
VLynch
p6815
sg14
VNNP
p6816
sg16
Nsbag4
(g5
g6
Ntp6817
Rp6818
(dp6819
g10
Vheadquarters
p6820
sg12
g6820
sg14
VNN
p6821
sg16
Nsbag4
(g5
g6
Ntp6822
Rp6823
(dp6824
g10
Vlocate
p6825
sg12
Vlocated
p6826
sg14
VVBD
p6827
sg16
Nsbag4
(g5
g6
Ntp6828
Rp6829
(dp6830
g10
g2394
sg12
g2394
sg14
g2395
sg16
Nsbasg2396
S'other'
p6831
sa(dp6832
g2353
(lp6833
g4
(g5
g6
Ntp6834
Rp6835
(dp6836
g10
Vwho
p6837
sg12
VWho
p6838
sg14
VWP
p6839
sg16
Nsbag4
(g5
g6
Ntp6840
Rp6841
(dp6842
g10
Vsupervise
p6843
sg12
Vsupervised
p6844
sg14
VVBN
p6845
sg16
Nsbag4
(g5
g6
Ntp6846
Rp6847
(dp6848
g10
Vthe
p6849
sg12
g6849
sg14
VDT
p6850
sg16
Nsbag4
(g5
g6
Ntp6851
Rp6852
(dp6853
g10
Vtransplant
p6854
sg12
g6854
sg14
VNN
p6855
sg16
Nsbag4
(g5
g6
Ntp6856
Rp6857
(dp6858
g10
g2394
sg12
g2394
sg14
g2395
sg16
Nsbasg2396
S'other'
p6859
sa(dp6860
g2353
(lp6861
g4
(g5
g6
Ntp6862
Rp6863
(dp6864
g10
Vwho
p6865
sg12
VWho
p6866
sg14
VWP
p6867
sg16
Nsbag4
(g5
g6
Ntp6868
Rp6869
(dp6870
g10
Vbe
p6871
sg12
Vwas
p6872
sg14
VVBD
p6873
sg16
Nsbag4
(g5
g6
Ntp6874
Rp6875
(dp6876
g10
Vpresident
p6877
sg12
VPresident
p6878
sg14
VNNP
p6879
sg16
Nsbag4
(g5
g6
Ntp6880
Rp6881
(dp6882
g10
Vof
p6883
sg12
g6883
sg14
VIN
p6884
sg16
Nsbag4
(g5
g6
Ntp6885
Rp6886
(dp6887
g10
Vcosta
p6888
sg12
VCosta
p6889
sg14
VNNP
p6890
sg16
Nsbag4
(g5
g6
Ntp6891
Rp6892
(dp6893
g10
Vrica
p6894
sg12
VRica
p6895
sg14
VNNP
p6896
sg16
Nsbag4
(g5
g6
Ntp6897
Rp6898
(dp6899
g10
Vin
p6900
sg12
g6900
sg14
VIN
p6901
sg16
Nsbasg2396
S'other'
p6902
sa(dp6903
g2353
(lp6904
g4
(g5
g6
Ntp6905
Rp6906
(dp6907
g10
Vwhat
p6908
sg12
VWhat
p6909
sg14
VWP
p6910
sg16
Nsbag4
(g5
g6
Ntp6911
Rp6912
(dp6913
g10
Vyear
p6914
sg12
g6914
sg14
VNN
p6915
sg16
Nsbag4
(g5
g6
Ntp6916
Rp6917
(dp6918
g10
Vdo
p6919
sg12
Vdid
p6920
sg14
VVBD
p6921
sg16
Nsbag4
(g5
g6
Ntp6922
Rp6923
(dp6924
g10
Vshe
p6925
sg12
g6925
sg14
VPRP
p6926
sg16
Nsbag4
(g5
g6
Ntp6927
Rp6928
(dp6929
g10
Vdie
p6930
sg12
g6930
sg14
VVB
p6931
sg16
Nsbag4
(g5
g6
Ntp6932
Rp6933
(dp6934
g10
g2394
sg12
g2394
sg14
g2395
sg16
Nsbasg2396
S'other'
p6935
sa(dp6936
g2353
(lp6937
g4
(g5
g6
Ntp6938
Rp6939
(dp6940
g10
Vwhat
p6941
sg12
VWhat
p6942
sg14
VWP
p6943
sg16
Nsbag4
(g5
g6
Ntp6944
Rp6945
(dp6946
g10
Vbe
p6947
sg12
Vis
p6948
sg14
VVBZ
p6949
sg16
Nsbag4
(g5
g6
Ntp6950
Rp6951
(dp6952
g10
Vthe
p6953
sg12
g6953
sg14
VDT
p6954
sg16
Nsbag4
(g5
g6
Ntp6955
Rp6956
(dp6957
g10
Vterm
p6958
sg12
g6958
sg14
VNN
p6959
sg16
Nsbag4
(g5
g6
Ntp6960
Rp6961
(dp6962
g10
Vfor
p6963
sg12
g6963
sg14
VIN
p6964
sg16
Nsbag4
(g5
g6
Ntp6965
Rp6966
(dp6967
g10
Vthe
p6968
sg12
g6968
sg14
VDT
p6969
sg16
Nsbag4
(g5
g6
Ntp6970
Rp6971
(dp6972
g10
Vsum
p6973
sg12
g6973
sg14
VNN
p6974
sg16
Nsbag4
(g5
g6
Ntp6975
Rp6976
(dp6977
g10
Vof
p6978
sg12
g6978
sg14
VIN
p6979
sg16
Nsbag4
(g5
g6
Ntp6980
Rp6981
(dp6982
g10
Vall
p6983
sg12
g6983
sg14
VDT
p6984
sg16
Nsbag4
(g5
g6
Ntp6985
Rp6986
(dp6987
g10
Vgenetic
p6988
sg12
g6988
sg14
VJJ
p6989
sg16
Nsbag4
(g5
g6
Ntp6990
Rp6991
(dp6992
g10
Vmaterial
p6993
sg12
g6993
sg14
VNN
p6994
sg16
Nsbag4
(g5
g6
Ntp6995
Rp6996
(dp6997
g10
Vin
p6998
sg12
g6998
sg14
VIN
p6999
sg16
Nsbag4
(g5
g6
Ntp7000
Rp7001
(dp7002
g10
g3560
sg12
g3560
sg14
VDT
p7003
sg16
Nsbag4
(g5
g6
Ntp7004
Rp7005
(dp7006
g10
Vgive
p7007
sg12
Vgiven
p7008
sg14
VVBN
p7009
sg16
Nsbag4
(g5
g6
Ntp7010
Rp7011
(dp7012
g10
Vorganism
p7013
sg12
g7013
sg14
VNN
p7014
sg16
Nsbasg2396
S'other'
p7015
sa(dp7016
g2353
(lp7017
g4
(g5
g6
Ntp7018
Rp7019
(dp7020
g10
Vthe
p7021
sg12
VThe
p7022
sg14
VDT
p7023
sg16
Nsbag4
(g5
g6
Ntp7024
Rp7025
(dp7026
g10
Vextinct
p7027
sg12
g7027
sg14
VNN
p7028
sg16
Nsbag4
(g5
g6
Ntp7029
Rp7030
(dp7031
g10
Vtasmanian
p7032
sg12
VTasmanian
p7033
sg14
VNNP
p7034
sg16
Nsbag4
(g5
g6
Ntp7035
Rp7036
(dp7037
g10
Vtiger
p7038
sg12
g7038
sg14
VNN
p7039
sg16
Nsbag4
(g5
g6
Ntp7040
Rp7041
(dp7042
g10
Vbe
p7043
sg12
Vis
p7044
sg14
VVBZ
p7045
sg16
Nsbag4
(g5
g6
Ntp7046
Rp7047
(dp7048
g10
Vknow
p7049
sg12
Vknown
p7050
sg14
VVBN
p7051
sg16
Nsbag4
(g5
g6
Ntp7052
Rp7053
(dp7054
g10
Vby
p7055
sg12
g7055
sg14
VIN
p7056
sg16
Nsbag4
(g5
g6
Ntp7057
Rp7058
(dp7059
g10
Vwhat
p7060
sg12
g7060
sg14
VWP
p7061
sg16
Nsbag4
(g5
g6
Ntp7062
Rp7063
(dp7064
g10
Vother
p7065
sg12
g7065
sg14
VJJ
p7066
sg16
Nsbag4
(g5
g6
Ntp7067
Rp7068
(dp7069
g10
Vname
p7070
sg12
g7070
sg14
VNN
p7071
sg16
Nsbag4
(g5
g6
Ntp7072
Rp7073
(dp7074
g10
g2394
sg12
g2394
sg14
g2395
sg16
Nsbasg2396
S'other'
p7075
sa(dp7076
g2353
(lp7077
g4
(g5
g6
Ntp7078
Rp7079
(dp7080
g10
Vlist
p7081
sg12
VList
p7082
sg14
VNNP
p7083
sg16
Nsbag4
(g5
g6
Ntp7084
Rp7085
(dp7086
g10
Vthe
p7087
sg12
g7087
sg14
VDT
p7088
sg16
Nsbag4
(g5
g6
Ntp7089
Rp7090
(dp7091
g10
Vnames
p7092
sg12
g7092
sg14
VNNS
p7093
sg16
Nsbag4
(g5
g6
Ntp7094
Rp7095
(dp7096
g10
Vof
p7097
sg12
g7097
sg14
VIN
p7098
sg16
Nsbag4
(g5
g6
Ntp7099
Rp7100
(dp7101
g10
Vboxers
p7102
sg12
g7102
sg14
VNNS
p7103
sg16
Nsbag4
(g5
g6
Ntp7104
Rp7105
(dp7106
g10
Vfloyd
p7107
sg12
VFloyd
p7108
sg14
VNNP
p7109
sg16
Nsbag4
(g5
g6
Ntp7110
Rp7111
(dp7112
g10
Vpatterson
p7113
sg12
VPatterson
p7114
sg14
VNNP
p7115
sg16
Nsbag4
(g5
g6
Ntp7116
Rp7117
(dp7118
g10
Vfight
p7119
sg12
Vfought
p7120
sg14
VVBD
p7121
sg16
Nsbag4
(g5
g6
Ntp7122
Rp7123
(dp7124
g10
g2395
sg12
g2395
sg14
g2395
sg16
Nsbasg2396
S'other'
p7125
sa(dp7126
g2353
(lp7127
g4
(g5
g6
Ntp7128
Rp7129
(dp7130
g10
Von
p7131
sg12
VOn
p7132
sg14
VIN
p7133
sg16
Nsbag4
(g5
g6
Ntp7134
Rp7135
(dp7136
g10
Vwhat
p7137
sg12
g7137
sg14
VWP
p7138
sg16
Nsbag4
(g5
g6
Ntp7139
Rp7140
(dp7141
g10
Vdate
p7142
sg12
g7142
sg14
VNN
p7143
sg16
Nsbag4
(g5
g6
Ntp7144
Rp7145
(dp7146
g10
Vdo
p7147
sg12
Vdid
p7148
sg14
VVBD
p7149
sg16
Nsbag4
(g5
g6
Ntp7150
Rp7151
(dp7152
g10
Vpresident
p7153
sg12
VPresident
p7154
sg14
VNNP
p7155
sg16
Nsbag4
(g5
g6
Ntp7156
Rp7157
(dp7158
g10
Vbush
p7159
sg12
VBush
p7160
sg14
VNNP
p7161
sg16
Nsbag4
(g5
g6
Ntp7162
Rp7163
(dp7164
g10
Vvisit
p7165
sg12
g7165
sg14
VNN
p7166
sg16
Nsbag4
(g5
g6
Ntp7167
Rp7168
(dp7169
g10
Vthe
p7170
sg12
g7170
sg14
VDT
p7171
sg16
Nsbag4
(g5
g6
Ntp7172
Rp7173
(dp7174
g10
Vuss
p7175
sg12
VUSS
p7176
sg14
VNNP
p7177
sg16
Nsbag4
(g5
g6
Ntp7178
Rp7179
(dp7180
g10
Vabraham
p7181
sg12
VAbraham
p7182
sg14
VNNP
p7183
sg16
Nsbag4
(g5
g6
Ntp7184
Rp7185
(dp7186
g10
Vlincoln
p7187
sg12
VLincoln
p7188
sg14
VNNP
p7189
sg16
Nsbag4
(g5
g6
Ntp7190
Rp7191
(dp7192
g10
g2394
sg12
g2394
sg14
g2395
sg16
Nsbasg2396
S'other'
p7193
sa(dp7194
g2353
(lp7195
g4
(g5
g6
Ntp7196
Rp7197
(dp7198
g10
Vwhat
p7199
sg12
VWhat
p7200
sg14
VWP
p7201
sg16
Nsbag4
(g5
g6
Ntp7202
Rp7203
(dp7204
g10
Vtype
p7205
sg12
g7205
sg14
VNN
p7206
sg16
Nsbag4
(g5
g6
Ntp7207
Rp7208
(dp7209
g10
Vof
p7210
sg12
g7210
sg14
VIN
p7211
sg16
Nsbag4
(g5
g6
Ntp7212
Rp7213
(dp7214
g10
Vmusic
p7215
sg12
g7215
sg14
VJJ
p7216
sg16
Nsbag4
(g5
g6
Ntp7217
Rp7218
(dp7219
g10
Vbe
p7220
sg12
Vis
p7221
sg14
VVBZ
p7222
sg16
Nsbag4
(g5
g6
Ntp7223
Rp7224
(dp7225
g10
Vperform
p7226
sg12
Vperformed
p7227
sg14
VVBN
p7228
sg16
Nsbag4
(g5
g6
Ntp7229
Rp7230
(dp7231
g10
Vby
p7232
sg12
g7232
sg14
VIN
p7233
sg16
Nsbag4
(g5
g6
Ntp7234
Rp7235
(dp7236
g10
Vthe
p7237
sg12
g7237
sg14
VDT
p7238
sg16
Nsbag4
(g5
g6
Ntp7239
Rp7240
(dp7241
g10
Vdixie
p7242
sg12
VDixie
p7243
sg14
VNNP
p7244
sg16
Nsbag4
(g5
g6
Ntp7245
Rp7246
(dp7247
g10
Vchicks
p7248
sg12
VChicks
p7249
sg14
VNNP
p7250
sg16
Nsbag4
(g5
g6
Ntp7251
Rp7252
(dp7253
g10
g2394
sg12
g2394
sg14
g2395
sg16
Nsbasg2396
S'musicgenre'
p7254
sa.